
2nd_final_prj.elf:     file format elf32-avr

Sections:
Idx Name          Size      VMA       LMA       File off  Algn
  0 .data         00000004  00800100  000002cc  00000360  2**0
                  CONTENTS, ALLOC, LOAD, DATA
  1 .text         000002cc  00000000  00000000  00000094  2**1
                  CONTENTS, ALLOC, LOAD, READONLY, CODE
  2 .bss          0000000e  00800104  00800104  00000364  2**0
                  ALLOC
  3 .comment      00000030  00000000  00000000  00000364  2**0
                  CONTENTS, READONLY
  4 .debug_aranges 00000078  00000000  00000000  00000394  2**0
                  CONTENTS, READONLY, DEBUGGING
  5 .debug_info   00000478  00000000  00000000  0000040c  2**0
                  CONTENTS, READONLY, DEBUGGING
  6 .debug_abbrev 00000193  00000000  00000000  00000884  2**0
                  CONTENTS, READONLY, DEBUGGING
  7 .debug_line   0000092d  00000000  00000000  00000a17  2**0
                  CONTENTS, READONLY, DEBUGGING
  8 .debug_frame  00000110  00000000  00000000  00001344  2**2
                  CONTENTS, READONLY, DEBUGGING
  9 .debug_str    00000450  00000000  00000000  00001454  2**0
                  CONTENTS, READONLY, DEBUGGING
 10 .debug_loc    000000cf  00000000  00000000  000018a4  2**0
                  CONTENTS, READONLY, DEBUGGING
 11 .debug_ranges 00000080  00000000  00000000  00001973  2**0
                  CONTENTS, READONLY, DEBUGGING

Disassembly of section .text:

00000000 <__vectors>:
   0:	4e c0       	rjmp	.+156    	; 0x9e <__ctors_end>
   2:	00 00       	nop
   4:	69 c0       	rjmp	.+210    	; 0xd8 <__bad_interrupt>
   6:	00 00       	nop
   8:	67 c0       	rjmp	.+206    	; 0xd8 <__bad_interrupt>
   a:	00 00       	nop
   c:	65 c0       	rjmp	.+202    	; 0xd8 <__bad_interrupt>
   e:	00 00       	nop
  10:	63 c0       	rjmp	.+198    	; 0xd8 <__bad_interrupt>
  12:	00 00       	nop
  14:	61 c0       	rjmp	.+194    	; 0xd8 <__bad_interrupt>
  16:	00 00       	nop
  18:	5f c0       	rjmp	.+190    	; 0xd8 <__bad_interrupt>
  1a:	00 00       	nop
  1c:	5d c0       	rjmp	.+186    	; 0xd8 <__bad_interrupt>
  1e:	00 00       	nop
  20:	5b c0       	rjmp	.+182    	; 0xd8 <__bad_interrupt>
  22:	00 00       	nop
  24:	59 c0       	rjmp	.+178    	; 0xd8 <__bad_interrupt>
  26:	00 00       	nop
  28:	57 c0       	rjmp	.+174    	; 0xd8 <__bad_interrupt>
  2a:	00 00       	nop
  2c:	55 c0       	rjmp	.+170    	; 0xd8 <__bad_interrupt>
  2e:	00 00       	nop
  30:	53 c0       	rjmp	.+166    	; 0xd8 <__bad_interrupt>
  32:	00 00       	nop
  34:	76 c0       	rjmp	.+236    	; 0x122 <__vector_13>
  36:	00 00       	nop
  38:	4f c0       	rjmp	.+158    	; 0xd8 <__bad_interrupt>
  3a:	00 00       	nop
  3c:	4d c0       	rjmp	.+154    	; 0xd8 <__bad_interrupt>
  3e:	00 00       	nop
  40:	4b c0       	rjmp	.+150    	; 0xd8 <__bad_interrupt>
  42:	00 00       	nop
  44:	49 c0       	rjmp	.+146    	; 0xd8 <__bad_interrupt>
  46:	00 00       	nop
  48:	47 c0       	rjmp	.+142    	; 0xd8 <__bad_interrupt>
  4a:	00 00       	nop
  4c:	45 c0       	rjmp	.+138    	; 0xd8 <__bad_interrupt>
  4e:	00 00       	nop
  50:	43 c0       	rjmp	.+134    	; 0xd8 <__bad_interrupt>
  52:	00 00       	nop
  54:	41 c0       	rjmp	.+130    	; 0xd8 <__bad_interrupt>
  56:	00 00       	nop
  58:	3f c0       	rjmp	.+126    	; 0xd8 <__bad_interrupt>
  5a:	00 00       	nop
  5c:	3d c0       	rjmp	.+122    	; 0xd8 <__bad_interrupt>
  5e:	00 00       	nop
  60:	3b c0       	rjmp	.+118    	; 0xd8 <__bad_interrupt>
  62:	00 00       	nop
  64:	39 c0       	rjmp	.+114    	; 0xd8 <__bad_interrupt>
  66:	00 00       	nop
  68:	37 c0       	rjmp	.+110    	; 0xd8 <__bad_interrupt>
  6a:	00 00       	nop
  6c:	35 c0       	rjmp	.+106    	; 0xd8 <__bad_interrupt>
  6e:	00 00       	nop
  70:	33 c0       	rjmp	.+102    	; 0xd8 <__bad_interrupt>
  72:	00 00       	nop
  74:	31 c0       	rjmp	.+98     	; 0xd8 <__bad_interrupt>
  76:	00 00       	nop
  78:	2f c0       	rjmp	.+94     	; 0xd8 <__bad_interrupt>
  7a:	00 00       	nop
  7c:	2d c0       	rjmp	.+90     	; 0xd8 <__bad_interrupt>
  7e:	00 00       	nop
  80:	2b c0       	rjmp	.+86     	; 0xd8 <__bad_interrupt>
  82:	00 00       	nop
  84:	29 c0       	rjmp	.+82     	; 0xd8 <__bad_interrupt>
  86:	00 00       	nop
  88:	27 c0       	rjmp	.+78     	; 0xd8 <__bad_interrupt>
  8a:	00 00       	nop
  8c:	d8 00       	.word	0x00d8	; ????
  8e:	eb 00       	.word	0x00eb	; ????
  90:	f1 00       	.word	0x00f1	; ????
  92:	f7 00       	.word	0x00f7	; ????
  94:	fd 00       	.word	0x00fd	; ????
  96:	03 01       	movw	r0, r6
  98:	09 01       	movw	r0, r18
  9a:	0f 01       	movw	r0, r30
  9c:	15 01       	movw	r2, r10

0000009e <__ctors_end>:
  9e:	11 24       	eor	r1, r1
  a0:	1f be       	out	0x3f, r1	; 63
  a2:	cf ef       	ldi	r28, 0xFF	; 255
  a4:	d0 e4       	ldi	r29, 0x40	; 64
  a6:	de bf       	out	0x3e, r29	; 62
  a8:	cd bf       	out	0x3d, r28	; 61

000000aa <__do_copy_data>:
  aa:	11 e0       	ldi	r17, 0x01	; 1
  ac:	a0 e0       	ldi	r26, 0x00	; 0
  ae:	b1 e0       	ldi	r27, 0x01	; 1
  b0:	ec ec       	ldi	r30, 0xCC	; 204
  b2:	f2 e0       	ldi	r31, 0x02	; 2
  b4:	00 e0       	ldi	r16, 0x00	; 0
  b6:	0b bf       	out	0x3b, r16	; 59
  b8:	02 c0       	rjmp	.+4      	; 0xbe <__do_copy_data+0x14>
  ba:	07 90       	elpm	r0, Z+
  bc:	0d 92       	st	X+, r0
  be:	a4 30       	cpi	r26, 0x04	; 4
  c0:	b1 07       	cpc	r27, r17
  c2:	d9 f7       	brne	.-10     	; 0xba <__do_copy_data+0x10>

000000c4 <__do_clear_bss>:
  c4:	21 e0       	ldi	r18, 0x01	; 1
  c6:	a4 e0       	ldi	r26, 0x04	; 4
  c8:	b1 e0       	ldi	r27, 0x01	; 1
  ca:	01 c0       	rjmp	.+2      	; 0xce <.do_clear_bss_start>

000000cc <.do_clear_bss_loop>:
  cc:	1d 92       	st	X+, r1

000000ce <.do_clear_bss_start>:
  ce:	a2 31       	cpi	r26, 0x12	; 18
  d0:	b2 07       	cpc	r27, r18
  d2:	e1 f7       	brne	.-8      	; 0xcc <.do_clear_bss_loop>
  d4:	b7 d0       	rcall	.+366    	; 0x244 <main>
  d6:	f8 c0       	rjmp	.+496    	; 0x2c8 <_exit>

000000d8 <__bad_interrupt>:
  d8:	93 cf       	rjmp	.-218    	; 0x0 <__vectors>

000000da <TimerOn>:
		case Press3_state9:
		PORTA = 0x08;
		break;
		case Off3:
		PORTA = 0x00;
		global_g = 6;
  da:	8b e0       	ldi	r24, 0x0B	; 11
  dc:	80 93 81 00 	sts	0x0081, r24
  e0:	8d e7       	ldi	r24, 0x7D	; 125
  e2:	90 e0       	ldi	r25, 0x00	; 0
  e4:	90 93 89 00 	sts	0x0089, r25
  e8:	80 93 88 00 	sts	0x0088, r24
  ec:	82 e0       	ldi	r24, 0x02	; 2
  ee:	80 93 6f 00 	sts	0x006F, r24
  f2:	10 92 85 00 	sts	0x0085, r1
  f6:	10 92 84 00 	sts	0x0084, r1
  fa:	80 91 00 01 	lds	r24, 0x0100
  fe:	90 91 01 01 	lds	r25, 0x0101
 102:	a0 91 02 01 	lds	r26, 0x0102
 106:	b0 91 03 01 	lds	r27, 0x0103
 10a:	80 93 05 01 	sts	0x0105, r24
 10e:	90 93 06 01 	sts	0x0106, r25
 112:	a0 93 07 01 	sts	0x0107, r26
 116:	b0 93 08 01 	sts	0x0108, r27
 11a:	8f b7       	in	r24, 0x3f	; 63
 11c:	80 68       	ori	r24, 0x80	; 128
 11e:	8f bf       	out	0x3f, r24	; 63
 120:	08 95       	ret

00000122 <__vector_13>:
 122:	1f 92       	push	r1
 124:	0f 92       	push	r0
 126:	0f b6       	in	r0, 0x3f	; 63
 128:	0f 92       	push	r0
 12a:	11 24       	eor	r1, r1
 12c:	8f 93       	push	r24
 12e:	9f 93       	push	r25
 130:	af 93       	push	r26
 132:	bf 93       	push	r27
 134:	80 91 05 01 	lds	r24, 0x0105
 138:	90 91 06 01 	lds	r25, 0x0106
 13c:	a0 91 07 01 	lds	r26, 0x0107
 140:	b0 91 08 01 	lds	r27, 0x0108
 144:	01 97       	sbiw	r24, 0x01	; 1
 146:	a1 09       	sbc	r26, r1
 148:	b1 09       	sbc	r27, r1
 14a:	80 93 05 01 	sts	0x0105, r24
 14e:	90 93 06 01 	sts	0x0106, r25
 152:	a0 93 07 01 	sts	0x0107, r26
 156:	b0 93 08 01 	sts	0x0108, r27
 15a:	89 2b       	or	r24, r25
 15c:	8a 2b       	or	r24, r26
 15e:	8b 2b       	or	r24, r27
 160:	99 f4       	brne	.+38     	; 0x188 <__vector_13+0x66>
 162:	81 e0       	ldi	r24, 0x01	; 1
 164:	80 93 09 01 	sts	0x0109, r24
 168:	80 91 00 01 	lds	r24, 0x0100
 16c:	90 91 01 01 	lds	r25, 0x0101
 170:	a0 91 02 01 	lds	r26, 0x0102
 174:	b0 91 03 01 	lds	r27, 0x0103
 178:	80 93 05 01 	sts	0x0105, r24
 17c:	90 93 06 01 	sts	0x0106, r25
 180:	a0 93 07 01 	sts	0x0107, r26
 184:	b0 93 08 01 	sts	0x0108, r27
 188:	bf 91       	pop	r27
 18a:	af 91       	pop	r26
 18c:	9f 91       	pop	r25
 18e:	8f 91       	pop	r24
 190:	0f 90       	pop	r0
 192:	0f be       	out	0x3f, r0	; 63
 194:	0f 90       	pop	r0
 196:	1f 90       	pop	r1
 198:	18 95       	reti

0000019a <TickFct_Machine3>:
 19a:	80 91 0b 01 	lds	r24, 0x010B
 19e:	90 e0       	ldi	r25, 0x00	; 0
 1a0:	89 30       	cpi	r24, 0x09	; 9
 1a2:	91 05       	cpc	r25, r1
 1a4:	08 f0       	brcs	.+2      	; 0x1a8 <TickFct_Machine3+0xe>
 1a6:	47 c0       	rjmp	.+142    	; 0x236 <TickFct_Machine3+0x9c>
 1a8:	fc 01       	movw	r30, r24
 1aa:	ea 5b       	subi	r30, 0xBA	; 186
 1ac:	ff 4f       	sbci	r31, 0xFF	; 255
 1ae:	86 c0       	rjmp	.+268    	; 0x2bc <__tablejump2__>
 1b0:	80 91 04 01 	lds	r24, 0x0104
 1b4:	84 30       	cpi	r24, 0x04	; 4
 1b6:	09 f0       	breq	.+2      	; 0x1ba <TickFct_Machine3+0x20>
 1b8:	40 c0       	rjmp	.+128    	; 0x23a <TickFct_Machine3+0xa0>
 1ba:	82 b9       	out	0x02, r24	; 2
 1bc:	18 99       	sbic	0x03, 0	; 3
 1be:	08 c0       	rjmp	.+16     	; 0x1d0 <TickFct_Machine3+0x36>
 1c0:	18 9b       	sbis	0x03, 0	; 3
 1c2:	fe cf       	rjmp	.-4      	; 0x1c0 <TickFct_Machine3+0x26>
 1c4:	81 e0       	ldi	r24, 0x01	; 1
 1c6:	80 93 0b 01 	sts	0x010B, r24
 1ca:	82 e0       	ldi	r24, 0x02	; 2
 1cc:	82 b9       	out	0x02, r24	; 2
 1ce:	08 95       	ret
 1d0:	10 92 0b 01 	sts	0x010B, r1
 1d4:	32 c0       	rjmp	.+100    	; 0x23a <TickFct_Machine3+0xa0>
 1d6:	82 e0       	ldi	r24, 0x02	; 2
 1d8:	80 93 0b 01 	sts	0x010B, r24
 1dc:	84 e0       	ldi	r24, 0x04	; 4
 1de:	82 b9       	out	0x02, r24	; 2
 1e0:	08 95       	ret
 1e2:	83 e0       	ldi	r24, 0x03	; 3
 1e4:	80 93 0b 01 	sts	0x010B, r24
 1e8:	81 e0       	ldi	r24, 0x01	; 1
 1ea:	82 b9       	out	0x02, r24	; 2
 1ec:	08 95       	ret
 1ee:	84 e0       	ldi	r24, 0x04	; 4
 1f0:	80 93 0b 01 	sts	0x010B, r24
 1f4:	88 e0       	ldi	r24, 0x08	; 8
 1f6:	82 b9       	out	0x02, r24	; 2
 1f8:	08 95       	ret
 1fa:	85 e0       	ldi	r24, 0x05	; 5
 1fc:	80 93 0b 01 	sts	0x010B, r24
 200:	82 e0       	ldi	r24, 0x02	; 2
 202:	82 b9       	out	0x02, r24	; 2
 204:	08 95       	ret
 206:	86 e0       	ldi	r24, 0x06	; 6
 208:	80 93 0b 01 	sts	0x010B, r24
 20c:	84 e0       	ldi	r24, 0x04	; 4
 20e:	82 b9       	out	0x02, r24	; 2
 210:	08 95       	ret
 212:	87 e0       	ldi	r24, 0x07	; 7
 214:	80 93 0b 01 	sts	0x010B, r24
 218:	81 e0       	ldi	r24, 0x01	; 1
 21a:	82 b9       	out	0x02, r24	; 2
 21c:	08 95       	ret
 21e:	88 e0       	ldi	r24, 0x08	; 8
 220:	80 93 0b 01 	sts	0x010B, r24
 224:	82 e0       	ldi	r24, 0x02	; 2
 226:	82 b9       	out	0x02, r24	; 2
 228:	08 95       	ret
 22a:	89 e0       	ldi	r24, 0x09	; 9
 22c:	80 93 0b 01 	sts	0x010B, r24
 230:	88 e0       	ldi	r24, 0x08	; 8
 232:	82 b9       	out	0x02, r24	; 2
 234:	08 95       	ret
 236:	10 92 0b 01 	sts	0x010B, r1
 23a:	85 e0       	ldi	r24, 0x05	; 5
 23c:	80 93 04 01 	sts	0x0104, r24
 240:	12 b8       	out	0x02, r1	; 2
 242:	08 95       	ret

00000244 <main>:
}



int main(void)
{
 244:	cf 92       	push	r12
 246:	df 92       	push	r13
 248:	ef 92       	push	r14
 24a:	ff 92       	push	r15
 24c:	cf 93       	push	r28
	DDRA = 0xff;	PORTA = 0x00;
 24e:	8f ef       	ldi	r24, 0xFF	; 255
 250:	81 b9       	out	0x01, r24	; 1
 252:	12 b8       	out	0x02, r1	; 2
	DDRB = 0x00;	PORTB = 0xFF;
 254:	14 b8       	out	0x04, r1	; 4
 256:	85 b9       	out	0x05, r24	; 5
	
	if(global_g == 4)
 258:	80 91 04 01 	lds	r24, 0x0104
 25c:	84 30       	cpi	r24, 0x04	; 4
 25e:	31 f5       	brne	.+76     	; 0x2ac <main+0x68>
			TimerFlag = 0;
		}
		*/
		while(global_g == 4)
		{
			PORTA = 0x04;
 260:	c4 e0       	ldi	r28, 0x04	; 4
		_avr_timer_cntcurr = _avr_timer_M;
	}
}
void TimerSet(unsigned long M) 
{
	_avr_timer_M = M;
 262:	0f 2e       	mov	r0, r31
 264:	f8 ee       	ldi	r31, 0xE8	; 232
 266:	cf 2e       	mov	r12, r31
 268:	f3 e0       	ldi	r31, 0x03	; 3
 26a:	df 2e       	mov	r13, r31
 26c:	e1 2c       	mov	r14, r1
 26e:	f1 2c       	mov	r15, r1
 270:	f0 2d       	mov	r31, r0
			TimerFlag = 0;
		}
		*/
		while(global_g == 4)
		{
			PORTA = 0x04;
 272:	c2 b9       	out	0x02, r28	; 2
		_avr_timer_cntcurr = _avr_timer_M;
	}
}
void TimerSet(unsigned long M) 
{
	_avr_timer_M = M;
 274:	c0 92 00 01 	sts	0x0100, r12
 278:	d0 92 01 01 	sts	0x0101, r13
 27c:	e0 92 02 01 	sts	0x0102, r14
 280:	f0 92 03 01 	sts	0x0103, r15
	_avr_timer_cntcurr = _avr_timer_M;
 284:	c0 92 05 01 	sts	0x0105, r12
 288:	d0 92 06 01 	sts	0x0106, r13
 28c:	e0 92 07 01 	sts	0x0107, r14
 290:	f0 92 08 01 	sts	0x0108, r15
		*/
		while(global_g == 4)
		{
			PORTA = 0x04;
			TimerSet(1000);
			TimerOn();
 294:	22 df       	rcall	.-444    	; 0xda <TimerOn>
			TickFct_Machine3();
 296:	81 df       	rcall	.-254    	; 0x19a <TickFct_Machine3>
			while(!TimerFlag);
 298:	80 91 09 01 	lds	r24, 0x0109
 29c:	88 23       	and	r24, r24
 29e:	e1 f3       	breq	.-8      	; 0x298 <main+0x54>
			TimerFlag = 0;
 2a0:	10 92 09 01 	sts	0x0109, r1
			ButtonPress2();
			while(!TimerFlag);
			TimerFlag = 0;
		}
		*/
		while(global_g == 4)
 2a4:	80 91 04 01 	lds	r24, 0x0104
 2a8:	84 30       	cpi	r24, 0x04	; 4
 2aa:	19 f3       	breq	.-58     	; 0x272 <main+0x2e>
		}
		*/
	}
	return 0;
		
 2ac:	80 e0       	ldi	r24, 0x00	; 0
 2ae:	90 e0       	ldi	r25, 0x00	; 0
 2b0:	cf 91       	pop	r28
 2b2:	ff 90       	pop	r15
 2b4:	ef 90       	pop	r14
 2b6:	df 90       	pop	r13
 2b8:	cf 90       	pop	r12
 2ba:	08 95       	ret

000002bc <__tablejump2__>:
 2bc:	ee 0f       	add	r30, r30
 2be:	ff 1f       	adc	r31, r31

000002c0 <__tablejump__>:
 2c0:	05 90       	lpm	r0, Z+
 2c2:	f4 91       	lpm	r31, Z
 2c4:	e0 2d       	mov	r30, r0
 2c6:	09 94       	ijmp

000002c8 <_exit>:
 2c8:	f8 94       	cli

000002ca <__stop_program>:
 2ca:	ff cf       	rjmp	.-2      	; 0x2ca <__stop_program>
