
2nd_final_prj.elf:     file format elf32-avr

Sections:
Idx Name          Size      VMA       LMA       File off  Algn
  0 .data         00000004  00800100  00000a3c  00000ad0  2**0
                  CONTENTS, ALLOC, LOAD, DATA
  1 .text         00000a3c  00000000  00000000  00000094  2**1
                  CONTENTS, ALLOC, LOAD, READONLY, CODE
  2 .bss          0000000f  00800104  00800104  00000ad4  2**0
                  ALLOC
  3 .comment      00000030  00000000  00000000  00000ad4  2**0
                  CONTENTS, READONLY
  4 .debug_aranges 00000080  00000000  00000000  00000b04  2**0
                  CONTENTS, READONLY, DEBUGGING
  5 .debug_info   000005ed  00000000  00000000  00000b84  2**0
                  CONTENTS, READONLY, DEBUGGING
  6 .debug_abbrev 00000193  00000000  00000000  00001171  2**0
                  CONTENTS, READONLY, DEBUGGING
  7 .debug_line   00000a6c  00000000  00000000  00001304  2**0
                  CONTENTS, READONLY, DEBUGGING
  8 .debug_frame  00000118  00000000  00000000  00001d70  2**2
                  CONTENTS, READONLY, DEBUGGING
  9 .debug_str    000004d7  00000000  00000000  00001e88  2**0
                  CONTENTS, READONLY, DEBUGGING
 10 .debug_loc    0000012f  00000000  00000000  0000235f  2**0
                  CONTENTS, READONLY, DEBUGGING
 11 .debug_ranges 00000070  00000000  00000000  0000248e  2**0
                  CONTENTS, READONLY, DEBUGGING

Disassembly of section .text:

00000000 <__vectors>:
   0:	8c c0       	rjmp	.+280    	; 0x11a <__ctors_end>
   2:	00 00       	nop
   4:	a7 c0       	rjmp	.+334    	; 0x154 <__bad_interrupt>
   6:	00 00       	nop
   8:	a5 c0       	rjmp	.+330    	; 0x154 <__bad_interrupt>
   a:	00 00       	nop
   c:	a3 c0       	rjmp	.+326    	; 0x154 <__bad_interrupt>
   e:	00 00       	nop
  10:	a1 c0       	rjmp	.+322    	; 0x154 <__bad_interrupt>
  12:	00 00       	nop
  14:	9f c0       	rjmp	.+318    	; 0x154 <__bad_interrupt>
  16:	00 00       	nop
  18:	9d c0       	rjmp	.+314    	; 0x154 <__bad_interrupt>
  1a:	00 00       	nop
  1c:	9b c0       	rjmp	.+310    	; 0x154 <__bad_interrupt>
  1e:	00 00       	nop
  20:	99 c0       	rjmp	.+306    	; 0x154 <__bad_interrupt>
  22:	00 00       	nop
  24:	97 c0       	rjmp	.+302    	; 0x154 <__bad_interrupt>
  26:	00 00       	nop
  28:	95 c0       	rjmp	.+298    	; 0x154 <__bad_interrupt>
  2a:	00 00       	nop
  2c:	93 c0       	rjmp	.+294    	; 0x154 <__bad_interrupt>
  2e:	00 00       	nop
  30:	91 c0       	rjmp	.+290    	; 0x154 <__bad_interrupt>
  32:	00 00       	nop
  34:	b4 c0       	rjmp	.+360    	; 0x19e <__vector_13>
  36:	00 00       	nop
  38:	8d c0       	rjmp	.+282    	; 0x154 <__bad_interrupt>
  3a:	00 00       	nop
  3c:	8b c0       	rjmp	.+278    	; 0x154 <__bad_interrupt>
  3e:	00 00       	nop
  40:	89 c0       	rjmp	.+274    	; 0x154 <__bad_interrupt>
  42:	00 00       	nop
  44:	87 c0       	rjmp	.+270    	; 0x154 <__bad_interrupt>
  46:	00 00       	nop
  48:	85 c0       	rjmp	.+266    	; 0x154 <__bad_interrupt>
  4a:	00 00       	nop
  4c:	83 c0       	rjmp	.+262    	; 0x154 <__bad_interrupt>
  4e:	00 00       	nop
  50:	81 c0       	rjmp	.+258    	; 0x154 <__bad_interrupt>
  52:	00 00       	nop
  54:	7f c0       	rjmp	.+254    	; 0x154 <__bad_interrupt>
  56:	00 00       	nop
  58:	7d c0       	rjmp	.+250    	; 0x154 <__bad_interrupt>
  5a:	00 00       	nop
  5c:	7b c0       	rjmp	.+246    	; 0x154 <__bad_interrupt>
  5e:	00 00       	nop
  60:	79 c0       	rjmp	.+242    	; 0x154 <__bad_interrupt>
  62:	00 00       	nop
  64:	77 c0       	rjmp	.+238    	; 0x154 <__bad_interrupt>
  66:	00 00       	nop
  68:	75 c0       	rjmp	.+234    	; 0x154 <__bad_interrupt>
  6a:	00 00       	nop
  6c:	73 c0       	rjmp	.+230    	; 0x154 <__bad_interrupt>
  6e:	00 00       	nop
  70:	71 c0       	rjmp	.+226    	; 0x154 <__bad_interrupt>
  72:	00 00       	nop
  74:	6f c0       	rjmp	.+222    	; 0x154 <__bad_interrupt>
  76:	00 00       	nop
  78:	6d c0       	rjmp	.+218    	; 0x154 <__bad_interrupt>
  7a:	00 00       	nop
  7c:	6b c0       	rjmp	.+214    	; 0x154 <__bad_interrupt>
  7e:	00 00       	nop
  80:	69 c0       	rjmp	.+210    	; 0x154 <__bad_interrupt>
  82:	00 00       	nop
  84:	67 c0       	rjmp	.+206    	; 0x154 <__bad_interrupt>
  86:	00 00       	nop
  88:	65 c0       	rjmp	.+202    	; 0x154 <__bad_interrupt>
  8a:	00 00       	nop
  8c:	e9 01       	movw	r28, r18
  8e:	f9 01       	movw	r30, r18
  90:	fd 01       	movw	r30, r26
  92:	01 02       	muls	r16, r17
  94:	05 02       	muls	r16, r21
  96:	09 02       	muls	r16, r25
  98:	0d 02       	muls	r16, r29
  9a:	1d 02       	muls	r17, r29
  9c:	1f 02       	muls	r17, r31
  9e:	22 02       	muls	r18, r18
  a0:	25 02       	muls	r18, r21
  a2:	28 02       	muls	r18, r24
  a4:	2b 02       	muls	r18, r27
  a6:	2e 02       	muls	r18, r30
  a8:	3c 02       	muls	r19, r28
  aa:	4d 02       	muls	r20, r29
  ac:	5e 02       	muls	r21, r30
  ae:	6f 02       	muls	r22, r31
  b0:	80 02       	muls	r24, r16
  b2:	91 02       	muls	r25, r17
  b4:	a2 02       	muls	r26, r18
  b6:	b9 02       	muls	r27, r25
  b8:	bc 02       	muls	r27, r28
  ba:	bf 02       	muls	r27, r31
  bc:	c2 02       	muls	r28, r18
  be:	c5 02       	muls	r28, r21
  c0:	c8 02       	muls	r28, r24
  c2:	b6 02       	muls	r27, r22
  c4:	cb 02       	muls	r28, r27
  c6:	db 02       	muls	r29, r27
  c8:	e7 02       	muls	r30, r23
  ca:	eb 02       	muls	r30, r27
  cc:	ef 02       	muls	r30, r31
  ce:	f3 02       	muls	r31, r19
  d0:	f7 02       	muls	r31, r23
  d2:	fb 02       	muls	r31, r27
  d4:	ff 02       	muls	r31, r31
  d6:	03 03       	mulsu	r16, r19
  d8:	07 03       	mulsu	r16, r23
  da:	13 03       	mulsu	r17, r19
  dc:	15 03       	mulsu	r17, r21
  de:	18 03       	fmul	r17, r16
  e0:	1b 03       	fmul	r17, r19
  e2:	1e 03       	fmul	r17, r22
  e4:	21 03       	mulsu	r18, r17
  e6:	24 03       	mulsu	r18, r20
  e8:	27 03       	mulsu	r18, r23
  ea:	2a 03       	fmul	r18, r18
  ec:	2d 03       	fmul	r18, r21
  ee:	3e 03       	fmul	r19, r22
  f0:	5d 03       	fmul	r21, r21
  f2:	6e 03       	fmul	r22, r22
  f4:	7f 03       	fmul	r23, r23
  f6:	90 03       	fmuls	r17, r16
  f8:	a1 03       	fmuls	r18, r17
  fa:	b2 03       	fmuls	r19, r18
  fc:	c3 03       	fmuls	r20, r19
  fe:	d4 03       	fmuls	r21, r20
 100:	e5 03       	fmuls	r22, r21
 102:	55 03       	mulsu	r21, r21
 104:	f9 03       	fmulsu	r23, r17
 106:	fc 03       	fmulsu	r23, r20
 108:	ff 03       	fmulsu	r23, r23
 10a:	02 04       	cpc	r0, r2
 10c:	05 04       	cpc	r0, r5
 10e:	08 04       	cpc	r0, r8
 110:	0b 04       	cpc	r0, r11
 112:	0e 04       	cpc	r0, r14
 114:	11 04       	cpc	r1, r1
 116:	f6 03       	fmuls	r23, r22
 118:	14 04       	cpc	r1, r4

0000011a <__ctors_end>:
 11a:	11 24       	eor	r1, r1
 11c:	1f be       	out	0x3f, r1	; 63
 11e:	cf ef       	ldi	r28, 0xFF	; 255
 120:	d0 e4       	ldi	r29, 0x40	; 64
 122:	de bf       	out	0x3e, r29	; 62
 124:	cd bf       	out	0x3d, r28	; 61

00000126 <__do_copy_data>:
 126:	11 e0       	ldi	r17, 0x01	; 1
 128:	a0 e0       	ldi	r26, 0x00	; 0
 12a:	b1 e0       	ldi	r27, 0x01	; 1
 12c:	ec e3       	ldi	r30, 0x3C	; 60
 12e:	fa e0       	ldi	r31, 0x0A	; 10
 130:	00 e0       	ldi	r16, 0x00	; 0
 132:	0b bf       	out	0x3b, r16	; 59
 134:	02 c0       	rjmp	.+4      	; 0x13a <__do_copy_data+0x14>
 136:	07 90       	elpm	r0, Z+
 138:	0d 92       	st	X+, r0
 13a:	a4 30       	cpi	r26, 0x04	; 4
 13c:	b1 07       	cpc	r27, r17
 13e:	d9 f7       	brne	.-10     	; 0x136 <__do_copy_data+0x10>

00000140 <__do_clear_bss>:
 140:	21 e0       	ldi	r18, 0x01	; 1
 142:	a4 e0       	ldi	r26, 0x04	; 4
 144:	b1 e0       	ldi	r27, 0x01	; 1
 146:	01 c0       	rjmp	.+2      	; 0x14a <.do_clear_bss_start>

00000148 <.do_clear_bss_loop>:
 148:	1d 92       	st	X+, r1

0000014a <.do_clear_bss_start>:
 14a:	a3 31       	cpi	r26, 0x13	; 19
 14c:	b2 07       	cpc	r27, r18
 14e:	e1 f7       	brne	.-8      	; 0x148 <.do_clear_bss_loop>
 150:	70 d3       	rcall	.+1760   	; 0x832 <main>
 152:	72 c4       	rjmp	.+2276   	; 0xa38 <_exit>

00000154 <__bad_interrupt>:
 154:	55 cf       	rjmp	.-342    	; 0x0 <__vectors>

00000156 <TimerOn>:
	}
}

enum SM4_States {SM4_off, SM4_on1, SM4_on2, SM4_on3, SM4_on4, SM4_on5, SM4_on6, SM4_on7, SM4_on8, SM4_on9, SM4_on10, SM4_on11, SM4_on12} SM4_States;
void TickFct_Machine4()
{
 156:	8b e0       	ldi	r24, 0x0B	; 11
 158:	80 93 81 00 	sts	0x0081, r24
 15c:	8d e7       	ldi	r24, 0x7D	; 125
 15e:	90 e0       	ldi	r25, 0x00	; 0
 160:	90 93 89 00 	sts	0x0089, r25
 164:	80 93 88 00 	sts	0x0088, r24
 168:	82 e0       	ldi	r24, 0x02	; 2
 16a:	80 93 6f 00 	sts	0x006F, r24
 16e:	10 92 85 00 	sts	0x0085, r1
 172:	10 92 84 00 	sts	0x0084, r1
 176:	80 91 00 01 	lds	r24, 0x0100
 17a:	90 91 01 01 	lds	r25, 0x0101
 17e:	a0 91 02 01 	lds	r26, 0x0102
 182:	b0 91 03 01 	lds	r27, 0x0103
 186:	80 93 05 01 	sts	0x0105, r24
 18a:	90 93 06 01 	sts	0x0106, r25
 18e:	a0 93 07 01 	sts	0x0107, r26
 192:	b0 93 08 01 	sts	0x0108, r27
 196:	8f b7       	in	r24, 0x3f	; 63
 198:	80 68       	ori	r24, 0x80	; 128
 19a:	8f bf       	out	0x3f, r24	; 63
 19c:	08 95       	ret

0000019e <__vector_13>:
 19e:	1f 92       	push	r1
 1a0:	0f 92       	push	r0
 1a2:	0f b6       	in	r0, 0x3f	; 63
 1a4:	0f 92       	push	r0
 1a6:	11 24       	eor	r1, r1
 1a8:	8f 93       	push	r24
 1aa:	9f 93       	push	r25
 1ac:	af 93       	push	r26
 1ae:	bf 93       	push	r27
 1b0:	80 91 05 01 	lds	r24, 0x0105
 1b4:	90 91 06 01 	lds	r25, 0x0106
 1b8:	a0 91 07 01 	lds	r26, 0x0107
 1bc:	b0 91 08 01 	lds	r27, 0x0108
 1c0:	01 97       	sbiw	r24, 0x01	; 1
 1c2:	a1 09       	sbc	r26, r1
 1c4:	b1 09       	sbc	r27, r1
 1c6:	80 93 05 01 	sts	0x0105, r24
 1ca:	90 93 06 01 	sts	0x0106, r25
 1ce:	a0 93 07 01 	sts	0x0107, r26
 1d2:	b0 93 08 01 	sts	0x0108, r27
 1d6:	89 2b       	or	r24, r25
 1d8:	8a 2b       	or	r24, r26
 1da:	8b 2b       	or	r24, r27
 1dc:	99 f4       	brne	.+38     	; 0x204 <__vector_13+0x66>
 1de:	81 e0       	ldi	r24, 0x01	; 1
 1e0:	80 93 09 01 	sts	0x0109, r24
 1e4:	80 91 00 01 	lds	r24, 0x0100
 1e8:	90 91 01 01 	lds	r25, 0x0101
 1ec:	a0 91 02 01 	lds	r26, 0x0102
 1f0:	b0 91 03 01 	lds	r27, 0x0103
 1f4:	80 93 05 01 	sts	0x0105, r24
 1f8:	90 93 06 01 	sts	0x0106, r25
 1fc:	a0 93 07 01 	sts	0x0107, r26
 200:	b0 93 08 01 	sts	0x0108, r27
 204:	bf 91       	pop	r27
 206:	af 91       	pop	r26
 208:	9f 91       	pop	r25
 20a:	8f 91       	pop	r24
 20c:	0f 90       	pop	r0
 20e:	0f be       	out	0x3f, r0	; 63
 210:	0f 90       	pop	r0
 212:	1f 90       	pop	r1
 214:	18 95       	reti

00000216 <TickFct_State_machine_1>:
 216:	80 91 0f 01 	lds	r24, 0x010F
 21a:	82 30       	cpi	r24, 0x02	; 2
 21c:	c9 f0       	breq	.+50     	; 0x250 <TickFct_State_machine_1+0x3a>
 21e:	28 f4       	brcc	.+10     	; 0x22a <TickFct_State_machine_1+0x14>
 220:	88 23       	and	r24, r24
 222:	41 f0       	breq	.+16     	; 0x234 <TickFct_State_machine_1+0x1e>
 224:	81 30       	cpi	r24, 0x01	; 1
 226:	81 f0       	breq	.+32     	; 0x248 <TickFct_State_machine_1+0x32>
 228:	20 c0       	rjmp	.+64     	; 0x26a <TickFct_State_machine_1+0x54>
 22a:	83 30       	cpi	r24, 0x03	; 3
 22c:	a9 f0       	breq	.+42     	; 0x258 <TickFct_State_machine_1+0x42>
 22e:	84 30       	cpi	r24, 0x04	; 4
 230:	b9 f0       	breq	.+46     	; 0x260 <TickFct_State_machine_1+0x4a>
 232:	1b c0       	rjmp	.+54     	; 0x26a <TickFct_State_machine_1+0x54>
 234:	80 91 04 01 	lds	r24, 0x0104
 238:	81 11       	cpse	r24, r1
 23a:	26 c0       	rjmp	.+76     	; 0x288 <TickFct_State_machine_1+0x72>
 23c:	1c 99       	sbic	0x03, 4	; 3
 23e:	24 c0       	rjmp	.+72     	; 0x288 <TickFct_State_machine_1+0x72>
 240:	81 e0       	ldi	r24, 0x01	; 1
 242:	80 93 0f 01 	sts	0x010F, r24
 246:	22 c0       	rjmp	.+68     	; 0x28c <TickFct_State_machine_1+0x76>
 248:	82 e0       	ldi	r24, 0x02	; 2
 24a:	80 93 0f 01 	sts	0x010F, r24
 24e:	21 c0       	rjmp	.+66     	; 0x292 <TickFct_State_machine_1+0x7c>
 250:	83 e0       	ldi	r24, 0x03	; 3
 252:	80 93 0f 01 	sts	0x010F, r24
 256:	20 c0       	rjmp	.+64     	; 0x298 <TickFct_State_machine_1+0x82>
 258:	84 e0       	ldi	r24, 0x04	; 4
 25a:	80 93 0f 01 	sts	0x010F, r24
 25e:	1f c0       	rjmp	.+62     	; 0x29e <TickFct_State_machine_1+0x88>
 260:	10 92 0f 01 	sts	0x010F, r1
 264:	81 e0       	ldi	r24, 0x01	; 1
 266:	80 93 04 01 	sts	0x0104, r24
 26a:	80 91 0f 01 	lds	r24, 0x010F
 26e:	82 30       	cpi	r24, 0x02	; 2
 270:	81 f0       	breq	.+32     	; 0x292 <TickFct_State_machine_1+0x7c>
 272:	28 f4       	brcc	.+10     	; 0x27e <TickFct_State_machine_1+0x68>
 274:	88 23       	and	r24, r24
 276:	41 f0       	breq	.+16     	; 0x288 <TickFct_State_machine_1+0x72>
 278:	81 30       	cpi	r24, 0x01	; 1
 27a:	41 f0       	breq	.+16     	; 0x28c <TickFct_State_machine_1+0x76>
 27c:	08 95       	ret
 27e:	83 30       	cpi	r24, 0x03	; 3
 280:	59 f0       	breq	.+22     	; 0x298 <TickFct_State_machine_1+0x82>
 282:	84 30       	cpi	r24, 0x04	; 4
 284:	71 f4       	brne	.+28     	; 0x2a2 <TickFct_State_machine_1+0x8c>
 286:	0b c0       	rjmp	.+22     	; 0x29e <TickFct_State_machine_1+0x88>
 288:	12 b8       	out	0x02, r1	; 2
 28a:	08 95       	ret
 28c:	81 e0       	ldi	r24, 0x01	; 1
 28e:	82 b9       	out	0x02, r24	; 2
 290:	08 95       	ret
 292:	82 e0       	ldi	r24, 0x02	; 2
 294:	82 b9       	out	0x02, r24	; 2
 296:	08 95       	ret
 298:	84 e0       	ldi	r24, 0x04	; 4
 29a:	82 b9       	out	0x02, r24	; 2
 29c:	08 95       	ret
 29e:	88 e0       	ldi	r24, 0x08	; 8
 2a0:	82 b9       	out	0x02, r24	; 2
 2a2:	08 95       	ret

000002a4 <ButtonPress>:
 2a4:	80 91 12 01 	lds	r24, 0x0112
 2a8:	82 30       	cpi	r24, 0x02	; 2
 2aa:	a9 f1       	breq	.+106    	; 0x316 <ButtonPress+0x72>
 2ac:	28 f4       	brcc	.+10     	; 0x2b8 <ButtonPress+0x14>
 2ae:	88 23       	and	r24, r24
 2b0:	59 f0       	breq	.+22     	; 0x2c8 <ButtonPress+0x24>
 2b2:	81 30       	cpi	r24, 0x01	; 1
 2b4:	f9 f0       	breq	.+62     	; 0x2f4 <ButtonPress+0x50>
 2b6:	5f c0       	rjmp	.+190    	; 0x376 <ButtonPress+0xd2>
 2b8:	84 30       	cpi	r24, 0x04	; 4
 2ba:	09 f4       	brne	.+2      	; 0x2be <ButtonPress+0x1a>
 2bc:	4e c0       	rjmp	.+156    	; 0x35a <ButtonPress+0xb6>
 2be:	e0 f1       	brcs	.+120    	; 0x338 <ButtonPress+0x94>
 2c0:	85 30       	cpi	r24, 0x05	; 5
 2c2:	09 f4       	brne	.+2      	; 0x2c6 <ButtonPress+0x22>
 2c4:	50 c0       	rjmp	.+160    	; 0x366 <ButtonPress+0xc2>
 2c6:	57 c0       	rjmp	.+174    	; 0x376 <ButtonPress+0xd2>
 2c8:	80 91 04 01 	lds	r24, 0x0104
 2cc:	81 30       	cpi	r24, 0x01	; 1
 2ce:	09 f0       	breq	.+2      	; 0x2d2 <ButtonPress+0x2e>
 2d0:	75 c0       	rjmp	.+234    	; 0x3bc <ButtonPress+0x118>
 2d2:	18 99       	sbic	0x03, 0	; 3
 2d4:	05 c0       	rjmp	.+10     	; 0x2e0 <ButtonPress+0x3c>
 2d6:	18 9b       	sbis	0x03, 0	; 3
 2d8:	fe cf       	rjmp	.-4      	; 0x2d6 <ButtonPress+0x32>
 2da:	81 e0       	ldi	r24, 0x01	; 1
 2dc:	80 93 12 01 	sts	0x0112, r24
 2e0:	19 9b       	sbis	0x03, 1	; 3
 2e2:	04 c0       	rjmp	.+8      	; 0x2ec <ButtonPress+0x48>
 2e4:	1a 9b       	sbis	0x03, 2	; 3
 2e6:	02 c0       	rjmp	.+4      	; 0x2ec <ButtonPress+0x48>
 2e8:	1b 99       	sbic	0x03, 3	; 3
 2ea:	45 c0       	rjmp	.+138    	; 0x376 <ButtonPress+0xd2>
 2ec:	85 e0       	ldi	r24, 0x05	; 5
 2ee:	80 93 12 01 	sts	0x0112, r24
 2f2:	51 c0       	rjmp	.+162    	; 0x396 <ButtonPress+0xf2>
 2f4:	19 99       	sbic	0x03, 1	; 3
 2f6:	05 c0       	rjmp	.+10     	; 0x302 <ButtonPress+0x5e>
 2f8:	19 9b       	sbis	0x03, 1	; 3
 2fa:	fe cf       	rjmp	.-4      	; 0x2f8 <ButtonPress+0x54>
 2fc:	82 e0       	ldi	r24, 0x02	; 2
 2fe:	80 93 12 01 	sts	0x0112, r24
 302:	18 9b       	sbis	0x03, 0	; 3
 304:	04 c0       	rjmp	.+8      	; 0x30e <ButtonPress+0x6a>
 306:	1a 9b       	sbis	0x03, 2	; 3
 308:	02 c0       	rjmp	.+4      	; 0x30e <ButtonPress+0x6a>
 30a:	1b 99       	sbic	0x03, 3	; 3
 30c:	34 c0       	rjmp	.+104    	; 0x376 <ButtonPress+0xd2>
 30e:	85 e0       	ldi	r24, 0x05	; 5
 310:	80 93 12 01 	sts	0x0112, r24
 314:	40 c0       	rjmp	.+128    	; 0x396 <ButtonPress+0xf2>
 316:	1a 99       	sbic	0x03, 2	; 3
 318:	05 c0       	rjmp	.+10     	; 0x324 <ButtonPress+0x80>
 31a:	1a 9b       	sbis	0x03, 2	; 3
 31c:	fe cf       	rjmp	.-4      	; 0x31a <ButtonPress+0x76>
 31e:	83 e0       	ldi	r24, 0x03	; 3
 320:	80 93 12 01 	sts	0x0112, r24
 324:	19 9b       	sbis	0x03, 1	; 3
 326:	04 c0       	rjmp	.+8      	; 0x330 <ButtonPress+0x8c>
 328:	18 9b       	sbis	0x03, 0	; 3
 32a:	02 c0       	rjmp	.+4      	; 0x330 <ButtonPress+0x8c>
 32c:	1b 99       	sbic	0x03, 3	; 3
 32e:	23 c0       	rjmp	.+70     	; 0x376 <ButtonPress+0xd2>
 330:	85 e0       	ldi	r24, 0x05	; 5
 332:	80 93 12 01 	sts	0x0112, r24
 336:	2f c0       	rjmp	.+94     	; 0x396 <ButtonPress+0xf2>
 338:	1b 99       	sbic	0x03, 3	; 3
 33a:	05 c0       	rjmp	.+10     	; 0x346 <ButtonPress+0xa2>
 33c:	1b 9b       	sbis	0x03, 3	; 3
 33e:	fe cf       	rjmp	.-4      	; 0x33c <ButtonPress+0x98>
 340:	84 e0       	ldi	r24, 0x04	; 4
 342:	80 93 12 01 	sts	0x0112, r24
 346:	19 9b       	sbis	0x03, 1	; 3
 348:	04 c0       	rjmp	.+8      	; 0x352 <ButtonPress+0xae>
 34a:	1a 9b       	sbis	0x03, 2	; 3
 34c:	02 c0       	rjmp	.+4      	; 0x352 <ButtonPress+0xae>
 34e:	18 99       	sbic	0x03, 0	; 3
 350:	12 c0       	rjmp	.+36     	; 0x376 <ButtonPress+0xd2>
 352:	85 e0       	ldi	r24, 0x05	; 5
 354:	80 93 12 01 	sts	0x0112, r24
 358:	1e c0       	rjmp	.+60     	; 0x396 <ButtonPress+0xf2>
 35a:	1c 99       	sbic	0x03, 4	; 3
 35c:	28 c0       	rjmp	.+80     	; 0x3ae <ButtonPress+0x10a>
 35e:	86 e0       	ldi	r24, 0x06	; 6
 360:	80 93 12 01 	sts	0x0112, r24
 364:	27 c0       	rjmp	.+78     	; 0x3b4 <ButtonPress+0x110>
 366:	18 99       	sbic	0x03, 0	; 3
 368:	16 c0       	rjmp	.+44     	; 0x396 <ButtonPress+0xf2>
 36a:	18 9b       	sbis	0x03, 0	; 3
 36c:	fe cf       	rjmp	.-4      	; 0x36a <ButtonPress+0xc6>
 36e:	81 e0       	ldi	r24, 0x01	; 1
 370:	80 93 12 01 	sts	0x0112, r24
 374:	13 c0       	rjmp	.+38     	; 0x39c <ButtonPress+0xf8>
 376:	80 91 12 01 	lds	r24, 0x0112
 37a:	83 30       	cpi	r24, 0x03	; 3
 37c:	a9 f0       	breq	.+42     	; 0x3a8 <ButtonPress+0x104>
 37e:	28 f4       	brcc	.+10     	; 0x38a <ButtonPress+0xe6>
 380:	81 30       	cpi	r24, 0x01	; 1
 382:	61 f0       	breq	.+24     	; 0x39c <ButtonPress+0xf8>
 384:	82 30       	cpi	r24, 0x02	; 2
 386:	69 f0       	breq	.+26     	; 0x3a2 <ButtonPress+0xfe>
 388:	08 95       	ret
 38a:	85 30       	cpi	r24, 0x05	; 5
 38c:	21 f0       	breq	.+8      	; 0x396 <ButtonPress+0xf2>
 38e:	78 f0       	brcs	.+30     	; 0x3ae <ButtonPress+0x10a>
 390:	86 30       	cpi	r24, 0x06	; 6
 392:	81 f0       	breq	.+32     	; 0x3b4 <ButtonPress+0x110>
 394:	08 95       	ret
 396:	80 e1       	ldi	r24, 0x10	; 16
 398:	82 b9       	out	0x02, r24	; 2
 39a:	08 95       	ret
 39c:	81 e0       	ldi	r24, 0x01	; 1
 39e:	82 b9       	out	0x02, r24	; 2
 3a0:	08 95       	ret
 3a2:	82 e0       	ldi	r24, 0x02	; 2
 3a4:	82 b9       	out	0x02, r24	; 2
 3a6:	08 95       	ret
 3a8:	84 e0       	ldi	r24, 0x04	; 4
 3aa:	82 b9       	out	0x02, r24	; 2
 3ac:	08 95       	ret
 3ae:	88 e0       	ldi	r24, 0x08	; 8
 3b0:	82 b9       	out	0x02, r24	; 2
 3b2:	08 95       	ret
 3b4:	12 b8       	out	0x02, r1	; 2
 3b6:	82 e0       	ldi	r24, 0x02	; 2
 3b8:	80 93 04 01 	sts	0x0104, r24
 3bc:	08 95       	ret

000003be <TickFct_Machine2>:
 3be:	80 91 0e 01 	lds	r24, 0x010E
 3c2:	90 e0       	ldi	r25, 0x00	; 0
 3c4:	87 30       	cpi	r24, 0x07	; 7
 3c6:	91 05       	cpc	r25, r1
 3c8:	70 f5       	brcc	.+92     	; 0x426 <TickFct_Machine2+0x68>
 3ca:	fc 01       	movw	r30, r24
 3cc:	ea 5b       	subi	r30, 0xBA	; 186
 3ce:	ff 4f       	sbci	r31, 0xFF	; 255
 3d0:	2d c3       	rjmp	.+1626   	; 0xa2c <__tablejump2__>
 3d2:	80 91 04 01 	lds	r24, 0x0104
 3d6:	82 30       	cpi	r24, 0x02	; 2
 3d8:	81 f5       	brne	.+96     	; 0x43a <TickFct_Machine2+0x7c>
 3da:	18 99       	sbic	0x03, 0	; 3
 3dc:	03 c0       	rjmp	.+6      	; 0x3e4 <TickFct_Machine2+0x26>
 3de:	81 e0       	ldi	r24, 0x01	; 1
 3e0:	80 93 0e 01 	sts	0x010E, r24
 3e4:	18 9b       	sbis	0x03, 0	; 3
 3e6:	1f c0       	rjmp	.+62     	; 0x426 <TickFct_Machine2+0x68>
 3e8:	10 92 0e 01 	sts	0x010E, r1
 3ec:	18 99       	sbic	0x03, 0	; 3
 3ee:	fc cf       	rjmp	.-8      	; 0x3e8 <TickFct_Machine2+0x2a>
 3f0:	24 c0       	rjmp	.+72     	; 0x43a <TickFct_Machine2+0x7c>
 3f2:	82 e0       	ldi	r24, 0x02	; 2
 3f4:	80 93 0e 01 	sts	0x010E, r24
 3f8:	25 c0       	rjmp	.+74     	; 0x444 <TickFct_Machine2+0x86>
 3fa:	83 e0       	ldi	r24, 0x03	; 3
 3fc:	80 93 0e 01 	sts	0x010E, r24
 400:	24 c0       	rjmp	.+72     	; 0x44a <TickFct_Machine2+0x8c>
 402:	84 e0       	ldi	r24, 0x04	; 4
 404:	80 93 0e 01 	sts	0x010E, r24
 408:	23 c0       	rjmp	.+70     	; 0x450 <TickFct_Machine2+0x92>
 40a:	85 e0       	ldi	r24, 0x05	; 5
 40c:	80 93 0e 01 	sts	0x010E, r24
 410:	22 c0       	rjmp	.+68     	; 0x456 <TickFct_Machine2+0x98>
 412:	86 e0       	ldi	r24, 0x06	; 6
 414:	80 93 0e 01 	sts	0x010E, r24
 418:	21 c0       	rjmp	.+66     	; 0x45c <TickFct_Machine2+0x9e>
 41a:	83 e0       	ldi	r24, 0x03	; 3
 41c:	80 93 04 01 	sts	0x0104, r24
 420:	10 92 0e 01 	sts	0x010E, r1
 424:	0a c0       	rjmp	.+20     	; 0x43a <TickFct_Machine2+0x7c>
 426:	80 91 0e 01 	lds	r24, 0x010E
 42a:	90 e0       	ldi	r25, 0x00	; 0
 42c:	87 30       	cpi	r24, 0x07	; 7
 42e:	91 05       	cpc	r25, r1
 430:	b8 f4       	brcc	.+46     	; 0x460 <TickFct_Machine2+0xa2>
 432:	fc 01       	movw	r30, r24
 434:	e3 5b       	subi	r30, 0xB3	; 179
 436:	ff 4f       	sbci	r31, 0xFF	; 255
 438:	f9 c2       	rjmp	.+1522   	; 0xa2c <__tablejump2__>
 43a:	12 b8       	out	0x02, r1	; 2
 43c:	08 95       	ret
 43e:	81 e0       	ldi	r24, 0x01	; 1
 440:	82 b9       	out	0x02, r24	; 2
 442:	08 95       	ret
 444:	84 e0       	ldi	r24, 0x04	; 4
 446:	82 b9       	out	0x02, r24	; 2
 448:	08 95       	ret
 44a:	88 e0       	ldi	r24, 0x08	; 8
 44c:	82 b9       	out	0x02, r24	; 2
 44e:	08 95       	ret
 450:	81 e0       	ldi	r24, 0x01	; 1
 452:	82 b9       	out	0x02, r24	; 2
 454:	08 95       	ret
 456:	82 e0       	ldi	r24, 0x02	; 2
 458:	82 b9       	out	0x02, r24	; 2
 45a:	08 95       	ret
 45c:	81 e0       	ldi	r24, 0x01	; 1
 45e:	82 b9       	out	0x02, r24	; 2
 460:	08 95       	ret

00000462 <ButtonPress2>:
 462:	80 91 0a 01 	lds	r24, 0x010A
 466:	90 e0       	ldi	r25, 0x00	; 0
 468:	87 30       	cpi	r24, 0x07	; 7
 46a:	91 05       	cpc	r25, r1
 46c:	08 f0       	brcs	.+2      	; 0x470 <ButtonPress2+0xe>
 46e:	70 c0       	rjmp	.+224    	; 0x550 <ButtonPress2+0xee>
 470:	fc 01       	movw	r30, r24
 472:	ec 5a       	subi	r30, 0xAC	; 172
 474:	ff 4f       	sbci	r31, 0xFF	; 255
 476:	da c2       	rjmp	.+1460   	; 0xa2c <__tablejump2__>
 478:	18 99       	sbic	0x03, 0	; 3
 47a:	05 c0       	rjmp	.+10     	; 0x486 <ButtonPress2+0x24>
 47c:	18 9b       	sbis	0x03, 0	; 3
 47e:	fe cf       	rjmp	.-4      	; 0x47c <ButtonPress2+0x1a>
 480:	81 e0       	ldi	r24, 0x01	; 1
 482:	80 93 0a 01 	sts	0x010A, r24
 486:	19 9b       	sbis	0x03, 1	; 3
 488:	04 c0       	rjmp	.+8      	; 0x492 <ButtonPress2+0x30>
 48a:	1a 9b       	sbis	0x03, 2	; 3
 48c:	02 c0       	rjmp	.+4      	; 0x492 <ButtonPress2+0x30>
 48e:	1b 99       	sbic	0x03, 3	; 3
 490:	62 c0       	rjmp	.+196    	; 0x556 <ButtonPress2+0xf4>
 492:	87 e0       	ldi	r24, 0x07	; 7
 494:	80 93 0a 01 	sts	0x010A, r24
 498:	69 c0       	rjmp	.+210    	; 0x56c <ButtonPress2+0x10a>
 49a:	1a 99       	sbic	0x03, 2	; 3
 49c:	05 c0       	rjmp	.+10     	; 0x4a8 <ButtonPress2+0x46>
 49e:	1a 9b       	sbis	0x03, 2	; 3
 4a0:	fe cf       	rjmp	.-4      	; 0x49e <ButtonPress2+0x3c>
 4a2:	82 e0       	ldi	r24, 0x02	; 2
 4a4:	80 93 0a 01 	sts	0x010A, r24
 4a8:	19 9b       	sbis	0x03, 1	; 3
 4aa:	04 c0       	rjmp	.+8      	; 0x4b4 <ButtonPress2+0x52>
 4ac:	18 9b       	sbis	0x03, 0	; 3
 4ae:	02 c0       	rjmp	.+4      	; 0x4b4 <ButtonPress2+0x52>
 4b0:	1b 99       	sbic	0x03, 3	; 3
 4b2:	51 c0       	rjmp	.+162    	; 0x556 <ButtonPress2+0xf4>
 4b4:	85 e0       	ldi	r24, 0x05	; 5
 4b6:	80 93 0a 01 	sts	0x010A, r24
 4ba:	67 c0       	rjmp	.+206    	; 0x58a <ButtonPress2+0x128>
 4bc:	1b 99       	sbic	0x03, 3	; 3
 4be:	05 c0       	rjmp	.+10     	; 0x4ca <ButtonPress2+0x68>
 4c0:	1b 9b       	sbis	0x03, 3	; 3
 4c2:	fe cf       	rjmp	.-4      	; 0x4c0 <ButtonPress2+0x5e>
 4c4:	83 e0       	ldi	r24, 0x03	; 3
 4c6:	80 93 0a 01 	sts	0x010A, r24
 4ca:	19 9b       	sbis	0x03, 1	; 3
 4cc:	04 c0       	rjmp	.+8      	; 0x4d6 <ButtonPress2+0x74>
 4ce:	1a 9b       	sbis	0x03, 2	; 3
 4d0:	02 c0       	rjmp	.+4      	; 0x4d6 <ButtonPress2+0x74>
 4d2:	18 99       	sbic	0x03, 0	; 3
 4d4:	40 c0       	rjmp	.+128    	; 0x556 <ButtonPress2+0xf4>
 4d6:	87 e0       	ldi	r24, 0x07	; 7
 4d8:	80 93 0a 01 	sts	0x010A, r24
 4dc:	47 c0       	rjmp	.+142    	; 0x56c <ButtonPress2+0x10a>
 4de:	18 99       	sbic	0x03, 0	; 3
 4e0:	05 c0       	rjmp	.+10     	; 0x4ec <ButtonPress2+0x8a>
 4e2:	18 9b       	sbis	0x03, 0	; 3
 4e4:	fe cf       	rjmp	.-4      	; 0x4e2 <ButtonPress2+0x80>
 4e6:	84 e0       	ldi	r24, 0x04	; 4
 4e8:	80 93 0a 01 	sts	0x010A, r24
 4ec:	19 9b       	sbis	0x03, 1	; 3
 4ee:	04 c0       	rjmp	.+8      	; 0x4f8 <ButtonPress2+0x96>
 4f0:	1a 9b       	sbis	0x03, 2	; 3
 4f2:	02 c0       	rjmp	.+4      	; 0x4f8 <ButtonPress2+0x96>
 4f4:	1b 99       	sbic	0x03, 3	; 3
 4f6:	2f c0       	rjmp	.+94     	; 0x556 <ButtonPress2+0xf4>
 4f8:	87 e0       	ldi	r24, 0x07	; 7
 4fa:	80 93 0a 01 	sts	0x010A, r24
 4fe:	36 c0       	rjmp	.+108    	; 0x56c <ButtonPress2+0x10a>
 500:	19 99       	sbic	0x03, 1	; 3
 502:	05 c0       	rjmp	.+10     	; 0x50e <ButtonPress2+0xac>
 504:	19 9b       	sbis	0x03, 1	; 3
 506:	fe cf       	rjmp	.-4      	; 0x504 <ButtonPress2+0xa2>
 508:	85 e0       	ldi	r24, 0x05	; 5
 50a:	80 93 0a 01 	sts	0x010A, r24
 50e:	18 9b       	sbis	0x03, 0	; 3
 510:	04 c0       	rjmp	.+8      	; 0x51a <ButtonPress2+0xb8>
 512:	1a 9b       	sbis	0x03, 2	; 3
 514:	02 c0       	rjmp	.+4      	; 0x51a <ButtonPress2+0xb8>
 516:	1b 99       	sbic	0x03, 3	; 3
 518:	1e c0       	rjmp	.+60     	; 0x556 <ButtonPress2+0xf4>
 51a:	87 e0       	ldi	r24, 0x07	; 7
 51c:	80 93 0a 01 	sts	0x010A, r24
 520:	25 c0       	rjmp	.+74     	; 0x56c <ButtonPress2+0x10a>
 522:	18 99       	sbic	0x03, 0	; 3
 524:	05 c0       	rjmp	.+10     	; 0x530 <ButtonPress2+0xce>
 526:	18 9b       	sbis	0x03, 0	; 3
 528:	fe cf       	rjmp	.-4      	; 0x526 <ButtonPress2+0xc4>
 52a:	86 e0       	ldi	r24, 0x06	; 6
 52c:	80 93 0a 01 	sts	0x010A, r24
 530:	19 9b       	sbis	0x03, 1	; 3
 532:	04 c0       	rjmp	.+8      	; 0x53c <ButtonPress2+0xda>
 534:	1a 9b       	sbis	0x03, 2	; 3
 536:	02 c0       	rjmp	.+4      	; 0x53c <ButtonPress2+0xda>
 538:	1b 99       	sbic	0x03, 3	; 3
 53a:	0d c0       	rjmp	.+26     	; 0x556 <ButtonPress2+0xf4>
 53c:	87 e0       	ldi	r24, 0x07	; 7
 53e:	80 93 0a 01 	sts	0x010A, r24
 542:	14 c0       	rjmp	.+40     	; 0x56c <ButtonPress2+0x10a>
 544:	1c 99       	sbic	0x03, 4	; 3
 546:	24 c0       	rjmp	.+72     	; 0x590 <ButtonPress2+0x12e>
 548:	88 e0       	ldi	r24, 0x08	; 8
 54a:	80 93 0a 01 	sts	0x010A, r24
 54e:	23 c0       	rjmp	.+70     	; 0x596 <ButtonPress2+0x134>
 550:	10 92 0a 01 	sts	0x010A, r1
 554:	08 95       	ret
 556:	80 91 0a 01 	lds	r24, 0x010A
 55a:	90 e0       	ldi	r25, 0x00	; 0
 55c:	fc 01       	movw	r30, r24
 55e:	31 97       	sbiw	r30, 0x01	; 1
 560:	e8 30       	cpi	r30, 0x08	; 8
 562:	f1 05       	cpc	r31, r1
 564:	e0 f4       	brcc	.+56     	; 0x59e <ButtonPress2+0x13c>
 566:	e5 5a       	subi	r30, 0xA5	; 165
 568:	ff 4f       	sbci	r31, 0xFF	; 255
 56a:	60 c2       	rjmp	.+1216   	; 0xa2c <__tablejump2__>
 56c:	80 e1       	ldi	r24, 0x10	; 16
 56e:	82 b9       	out	0x02, r24	; 2
 570:	08 95       	ret
 572:	81 e0       	ldi	r24, 0x01	; 1
 574:	82 b9       	out	0x02, r24	; 2
 576:	08 95       	ret
 578:	84 e0       	ldi	r24, 0x04	; 4
 57a:	82 b9       	out	0x02, r24	; 2
 57c:	08 95       	ret
 57e:	88 e0       	ldi	r24, 0x08	; 8
 580:	82 b9       	out	0x02, r24	; 2
 582:	08 95       	ret
 584:	81 e0       	ldi	r24, 0x01	; 1
 586:	82 b9       	out	0x02, r24	; 2
 588:	08 95       	ret
 58a:	82 e0       	ldi	r24, 0x02	; 2
 58c:	82 b9       	out	0x02, r24	; 2
 58e:	08 95       	ret
 590:	81 e0       	ldi	r24, 0x01	; 1
 592:	82 b9       	out	0x02, r24	; 2
 594:	08 95       	ret
 596:	12 b8       	out	0x02, r1	; 2
 598:	84 e0       	ldi	r24, 0x04	; 4
 59a:	80 93 04 01 	sts	0x0104, r24
 59e:	08 95       	ret

000005a0 <TickFct_Machine3>:
 5a0:	20 91 0b 01 	lds	r18, 0x010B
 5a4:	82 2f       	mov	r24, r18
 5a6:	90 e0       	ldi	r25, 0x00	; 0
 5a8:	8a 30       	cpi	r24, 0x0A	; 10
 5aa:	91 05       	cpc	r25, r1
 5ac:	98 f5       	brcc	.+102    	; 0x614 <TickFct_Machine3+0x74>
 5ae:	fc 01       	movw	r30, r24
 5b0:	ed 59       	subi	r30, 0x9D	; 157
 5b2:	ff 4f       	sbci	r31, 0xFF	; 255
 5b4:	3b c2       	rjmp	.+1142   	; 0xa2c <__tablejump2__>
 5b6:	80 91 04 01 	lds	r24, 0x0104
 5ba:	84 30       	cpi	r24, 0x04	; 4
 5bc:	a1 f5       	brne	.+104    	; 0x626 <TickFct_Machine3+0x86>
 5be:	18 99       	sbic	0x03, 0	; 3
 5c0:	32 c0       	rjmp	.+100    	; 0x626 <TickFct_Machine3+0x86>
 5c2:	18 9b       	sbis	0x03, 0	; 3
 5c4:	fe cf       	rjmp	.-4      	; 0x5c2 <TickFct_Machine3+0x22>
 5c6:	81 e0       	ldi	r24, 0x01	; 1
 5c8:	80 93 0b 01 	sts	0x010B, r24
 5cc:	2e c0       	rjmp	.+92     	; 0x62a <TickFct_Machine3+0x8a>
 5ce:	82 e0       	ldi	r24, 0x02	; 2
 5d0:	80 93 0b 01 	sts	0x010B, r24
 5d4:	2d c0       	rjmp	.+90     	; 0x630 <TickFct_Machine3+0x90>
 5d6:	83 e0       	ldi	r24, 0x03	; 3
 5d8:	80 93 0b 01 	sts	0x010B, r24
 5dc:	2c c0       	rjmp	.+88     	; 0x636 <TickFct_Machine3+0x96>
 5de:	84 e0       	ldi	r24, 0x04	; 4
 5e0:	80 93 0b 01 	sts	0x010B, r24
 5e4:	2b c0       	rjmp	.+86     	; 0x63c <TickFct_Machine3+0x9c>
 5e6:	85 e0       	ldi	r24, 0x05	; 5
 5e8:	80 93 0b 01 	sts	0x010B, r24
 5ec:	2a c0       	rjmp	.+84     	; 0x642 <TickFct_Machine3+0xa2>
 5ee:	86 e0       	ldi	r24, 0x06	; 6
 5f0:	80 93 0b 01 	sts	0x010B, r24
 5f4:	29 c0       	rjmp	.+82     	; 0x648 <TickFct_Machine3+0xa8>
 5f6:	87 e0       	ldi	r24, 0x07	; 7
 5f8:	80 93 0b 01 	sts	0x010B, r24
 5fc:	28 c0       	rjmp	.+80     	; 0x64e <TickFct_Machine3+0xae>
 5fe:	88 e0       	ldi	r24, 0x08	; 8
 600:	80 93 0b 01 	sts	0x010B, r24
 604:	27 c0       	rjmp	.+78     	; 0x654 <TickFct_Machine3+0xb4>
 606:	89 e0       	ldi	r24, 0x09	; 9
 608:	80 93 0b 01 	sts	0x010B, r24
 60c:	26 c0       	rjmp	.+76     	; 0x65a <TickFct_Machine3+0xba>
 60e:	10 92 0b 01 	sts	0x010B, r1
 612:	09 c0       	rjmp	.+18     	; 0x626 <TickFct_Machine3+0x86>
 614:	82 2f       	mov	r24, r18
 616:	90 e0       	ldi	r25, 0x00	; 0
 618:	8a 30       	cpi	r24, 0x0A	; 10
 61a:	91 05       	cpc	r25, r1
 61c:	18 f5       	brcc	.+70     	; 0x664 <TickFct_Machine3+0xc4>
 61e:	fc 01       	movw	r30, r24
 620:	e3 59       	subi	r30, 0x93	; 147
 622:	ff 4f       	sbci	r31, 0xFF	; 255
 624:	03 c2       	rjmp	.+1030   	; 0xa2c <__tablejump2__>
 626:	12 b8       	out	0x02, r1	; 2
 628:	08 95       	ret
 62a:	82 e0       	ldi	r24, 0x02	; 2
 62c:	82 b9       	out	0x02, r24	; 2
 62e:	08 95       	ret
 630:	84 e0       	ldi	r24, 0x04	; 4
 632:	82 b9       	out	0x02, r24	; 2
 634:	08 95       	ret
 636:	81 e0       	ldi	r24, 0x01	; 1
 638:	82 b9       	out	0x02, r24	; 2
 63a:	08 95       	ret
 63c:	88 e0       	ldi	r24, 0x08	; 8
 63e:	82 b9       	out	0x02, r24	; 2
 640:	08 95       	ret
 642:	82 e0       	ldi	r24, 0x02	; 2
 644:	82 b9       	out	0x02, r24	; 2
 646:	08 95       	ret
 648:	84 e0       	ldi	r24, 0x04	; 4
 64a:	82 b9       	out	0x02, r24	; 2
 64c:	08 95       	ret
 64e:	81 e0       	ldi	r24, 0x01	; 1
 650:	82 b9       	out	0x02, r24	; 2
 652:	08 95       	ret
 654:	82 e0       	ldi	r24, 0x02	; 2
 656:	82 b9       	out	0x02, r24	; 2
 658:	08 95       	ret
 65a:	88 e0       	ldi	r24, 0x08	; 8
 65c:	82 b9       	out	0x02, r24	; 2
 65e:	85 e0       	ldi	r24, 0x05	; 5
 660:	80 93 04 01 	sts	0x0104, r24
 664:	08 95       	ret

00000666 <ButtonPress3>:
 666:	80 91 10 01 	lds	r24, 0x0110
 66a:	90 e0       	ldi	r25, 0x00	; 0
 66c:	8b 30       	cpi	r24, 0x0B	; 11
 66e:	91 05       	cpc	r25, r1
 670:	08 f0       	brcs	.+2      	; 0x674 <ButtonPress3+0xe>
 672:	b1 c0       	rjmp	.+354    	; 0x7d6 <ButtonPress3+0x170>
 674:	fc 01       	movw	r30, r24
 676:	e9 58       	subi	r30, 0x89	; 137
 678:	ff 4f       	sbci	r31, 0xFF	; 255
 67a:	d8 c1       	rjmp	.+944    	; 0xa2c <__tablejump2__>
 67c:	80 91 04 01 	lds	r24, 0x0104
 680:	85 30       	cpi	r24, 0x05	; 5
 682:	09 f0       	breq	.+2      	; 0x686 <ButtonPress3+0x20>
 684:	d5 c0       	rjmp	.+426    	; 0x830 <ButtonPress3+0x1ca>
 686:	12 b8       	out	0x02, r1	; 2
 688:	19 99       	sbic	0x03, 1	; 3
 68a:	05 c0       	rjmp	.+10     	; 0x696 <ButtonPress3+0x30>
 68c:	19 9b       	sbis	0x03, 1	; 3
 68e:	fe cf       	rjmp	.-4      	; 0x68c <ButtonPress3+0x26>
 690:	81 e0       	ldi	r24, 0x01	; 1
 692:	80 93 10 01 	sts	0x0110, r24
 696:	18 9b       	sbis	0x03, 0	; 3
 698:	04 c0       	rjmp	.+8      	; 0x6a2 <ButtonPress3+0x3c>
 69a:	1a 9b       	sbis	0x03, 2	; 3
 69c:	02 c0       	rjmp	.+4      	; 0x6a2 <ButtonPress3+0x3c>
 69e:	1b 99       	sbic	0x03, 3	; 3
 6a0:	9a c0       	rjmp	.+308    	; 0x7d6 <ButtonPress3+0x170>
 6a2:	8a e0       	ldi	r24, 0x0A	; 10
 6a4:	80 93 10 01 	sts	0x0110, r24
 6a8:	a1 c0       	rjmp	.+322    	; 0x7ec <ButtonPress3+0x186>
 6aa:	19 99       	sbic	0x03, 1	; 3
 6ac:	9f c0       	rjmp	.+318    	; 0x7ec <ButtonPress3+0x186>
 6ae:	19 9b       	sbis	0x03, 1	; 3
 6b0:	fe cf       	rjmp	.-4      	; 0x6ae <ButtonPress3+0x48>
 6b2:	81 e0       	ldi	r24, 0x01	; 1
 6b4:	80 93 10 01 	sts	0x0110, r24
 6b8:	9c c0       	rjmp	.+312    	; 0x7f2 <ButtonPress3+0x18c>
 6ba:	1a 99       	sbic	0x03, 2	; 3
 6bc:	05 c0       	rjmp	.+10     	; 0x6c8 <ButtonPress3+0x62>
 6be:	1a 9b       	sbis	0x03, 2	; 3
 6c0:	fe cf       	rjmp	.-4      	; 0x6be <ButtonPress3+0x58>
 6c2:	82 e0       	ldi	r24, 0x02	; 2
 6c4:	80 93 10 01 	sts	0x0110, r24
 6c8:	19 9b       	sbis	0x03, 1	; 3
 6ca:	04 c0       	rjmp	.+8      	; 0x6d4 <ButtonPress3+0x6e>
 6cc:	18 9b       	sbis	0x03, 0	; 3
 6ce:	02 c0       	rjmp	.+4      	; 0x6d4 <ButtonPress3+0x6e>
 6d0:	1b 99       	sbic	0x03, 3	; 3
 6d2:	81 c0       	rjmp	.+258    	; 0x7d6 <ButtonPress3+0x170>
 6d4:	8a e0       	ldi	r24, 0x0A	; 10
 6d6:	80 93 10 01 	sts	0x0110, r24
 6da:	88 c0       	rjmp	.+272    	; 0x7ec <ButtonPress3+0x186>
 6dc:	18 99       	sbic	0x03, 0	; 3
 6de:	05 c0       	rjmp	.+10     	; 0x6ea <ButtonPress3+0x84>
 6e0:	18 9b       	sbis	0x03, 0	; 3
 6e2:	fe cf       	rjmp	.-4      	; 0x6e0 <ButtonPress3+0x7a>
 6e4:	83 e0       	ldi	r24, 0x03	; 3
 6e6:	80 93 10 01 	sts	0x0110, r24
 6ea:	19 9b       	sbis	0x03, 1	; 3
 6ec:	04 c0       	rjmp	.+8      	; 0x6f6 <ButtonPress3+0x90>
 6ee:	1a 9b       	sbis	0x03, 2	; 3
 6f0:	02 c0       	rjmp	.+4      	; 0x6f6 <ButtonPress3+0x90>
 6f2:	1b 99       	sbic	0x03, 3	; 3
 6f4:	70 c0       	rjmp	.+224    	; 0x7d6 <ButtonPress3+0x170>
 6f6:	8a e0       	ldi	r24, 0x0A	; 10
 6f8:	80 93 10 01 	sts	0x0110, r24
 6fc:	77 c0       	rjmp	.+238    	; 0x7ec <ButtonPress3+0x186>
 6fe:	1b 99       	sbic	0x03, 3	; 3
 700:	05 c0       	rjmp	.+10     	; 0x70c <ButtonPress3+0xa6>
 702:	1b 9b       	sbis	0x03, 3	; 3
 704:	fe cf       	rjmp	.-4      	; 0x702 <ButtonPress3+0x9c>
 706:	84 e0       	ldi	r24, 0x04	; 4
 708:	80 93 10 01 	sts	0x0110, r24
 70c:	19 9b       	sbis	0x03, 1	; 3
 70e:	04 c0       	rjmp	.+8      	; 0x718 <ButtonPress3+0xb2>
 710:	1a 9b       	sbis	0x03, 2	; 3
 712:	02 c0       	rjmp	.+4      	; 0x718 <ButtonPress3+0xb2>
 714:	18 99       	sbic	0x03, 0	; 3
 716:	5f c0       	rjmp	.+190    	; 0x7d6 <ButtonPress3+0x170>
 718:	8a e0       	ldi	r24, 0x0A	; 10
 71a:	80 93 10 01 	sts	0x0110, r24
 71e:	66 c0       	rjmp	.+204    	; 0x7ec <ButtonPress3+0x186>
 720:	19 99       	sbic	0x03, 1	; 3
 722:	05 c0       	rjmp	.+10     	; 0x72e <ButtonPress3+0xc8>
 724:	19 9b       	sbis	0x03, 1	; 3
 726:	fe cf       	rjmp	.-4      	; 0x724 <ButtonPress3+0xbe>
 728:	85 e0       	ldi	r24, 0x05	; 5
 72a:	80 93 10 01 	sts	0x0110, r24
 72e:	18 9b       	sbis	0x03, 0	; 3
 730:	04 c0       	rjmp	.+8      	; 0x73a <ButtonPress3+0xd4>
 732:	1a 9b       	sbis	0x03, 2	; 3
 734:	02 c0       	rjmp	.+4      	; 0x73a <ButtonPress3+0xd4>
 736:	1b 99       	sbic	0x03, 3	; 3
 738:	4e c0       	rjmp	.+156    	; 0x7d6 <ButtonPress3+0x170>
 73a:	8a e0       	ldi	r24, 0x0A	; 10
 73c:	80 93 10 01 	sts	0x0110, r24
 740:	55 c0       	rjmp	.+170    	; 0x7ec <ButtonPress3+0x186>
 742:	1a 99       	sbic	0x03, 2	; 3
 744:	05 c0       	rjmp	.+10     	; 0x750 <ButtonPress3+0xea>
 746:	1a 9b       	sbis	0x03, 2	; 3
 748:	fe cf       	rjmp	.-4      	; 0x746 <ButtonPress3+0xe0>
 74a:	86 e0       	ldi	r24, 0x06	; 6
 74c:	80 93 10 01 	sts	0x0110, r24
 750:	19 9b       	sbis	0x03, 1	; 3
 752:	04 c0       	rjmp	.+8      	; 0x75c <ButtonPress3+0xf6>
 754:	18 9b       	sbis	0x03, 0	; 3
 756:	02 c0       	rjmp	.+4      	; 0x75c <ButtonPress3+0xf6>
 758:	1b 99       	sbic	0x03, 3	; 3
 75a:	3d c0       	rjmp	.+122    	; 0x7d6 <ButtonPress3+0x170>
 75c:	8a e0       	ldi	r24, 0x0A	; 10
 75e:	80 93 10 01 	sts	0x0110, r24
 762:	44 c0       	rjmp	.+136    	; 0x7ec <ButtonPress3+0x186>
 764:	18 99       	sbic	0x03, 0	; 3
 766:	05 c0       	rjmp	.+10     	; 0x772 <ButtonPress3+0x10c>
 768:	18 9b       	sbis	0x03, 0	; 3
 76a:	fe cf       	rjmp	.-4      	; 0x768 <ButtonPress3+0x102>
 76c:	87 e0       	ldi	r24, 0x07	; 7
 76e:	80 93 10 01 	sts	0x0110, r24
 772:	19 9b       	sbis	0x03, 1	; 3
 774:	04 c0       	rjmp	.+8      	; 0x77e <ButtonPress3+0x118>
 776:	1a 9b       	sbis	0x03, 2	; 3
 778:	02 c0       	rjmp	.+4      	; 0x77e <ButtonPress3+0x118>
 77a:	1b 99       	sbic	0x03, 3	; 3
 77c:	2c c0       	rjmp	.+88     	; 0x7d6 <ButtonPress3+0x170>
 77e:	8a e0       	ldi	r24, 0x0A	; 10
 780:	80 93 10 01 	sts	0x0110, r24
 784:	33 c0       	rjmp	.+102    	; 0x7ec <ButtonPress3+0x186>
 786:	19 99       	sbic	0x03, 1	; 3
 788:	05 c0       	rjmp	.+10     	; 0x794 <ButtonPress3+0x12e>
 78a:	19 9b       	sbis	0x03, 1	; 3
 78c:	fe cf       	rjmp	.-4      	; 0x78a <ButtonPress3+0x124>
 78e:	88 e0       	ldi	r24, 0x08	; 8
 790:	80 93 10 01 	sts	0x0110, r24
 794:	18 9b       	sbis	0x03, 0	; 3
 796:	04 c0       	rjmp	.+8      	; 0x7a0 <ButtonPress3+0x13a>
 798:	1a 9b       	sbis	0x03, 2	; 3
 79a:	02 c0       	rjmp	.+4      	; 0x7a0 <ButtonPress3+0x13a>
 79c:	1b 99       	sbic	0x03, 3	; 3
 79e:	1b c0       	rjmp	.+54     	; 0x7d6 <ButtonPress3+0x170>
 7a0:	8a e0       	ldi	r24, 0x0A	; 10
 7a2:	80 93 10 01 	sts	0x0110, r24
 7a6:	22 c0       	rjmp	.+68     	; 0x7ec <ButtonPress3+0x186>
 7a8:	1b 99       	sbic	0x03, 3	; 3
 7aa:	05 c0       	rjmp	.+10     	; 0x7b6 <ButtonPress3+0x150>
 7ac:	1b 9b       	sbis	0x03, 3	; 3
 7ae:	fe cf       	rjmp	.-4      	; 0x7ac <ButtonPress3+0x146>
 7b0:	89 e0       	ldi	r24, 0x09	; 9
 7b2:	80 93 10 01 	sts	0x0110, r24
 7b6:	19 9b       	sbis	0x03, 1	; 3
 7b8:	04 c0       	rjmp	.+8      	; 0x7c2 <ButtonPress3+0x15c>
 7ba:	1a 9b       	sbis	0x03, 2	; 3
 7bc:	02 c0       	rjmp	.+4      	; 0x7c2 <ButtonPress3+0x15c>
 7be:	18 99       	sbic	0x03, 0	; 3
 7c0:	0a c0       	rjmp	.+20     	; 0x7d6 <ButtonPress3+0x170>
 7c2:	8a e0       	ldi	r24, 0x0A	; 10
 7c4:	80 93 10 01 	sts	0x0110, r24
 7c8:	11 c0       	rjmp	.+34     	; 0x7ec <ButtonPress3+0x186>
 7ca:	1c 99       	sbic	0x03, 4	; 3
 7cc:	2a c0       	rjmp	.+84     	; 0x822 <ButtonPress3+0x1bc>
 7ce:	8b e0       	ldi	r24, 0x0B	; 11
 7d0:	80 93 10 01 	sts	0x0110, r24
 7d4:	29 c0       	rjmp	.+82     	; 0x828 <ButtonPress3+0x1c2>
 7d6:	80 91 10 01 	lds	r24, 0x0110
 7da:	90 e0       	ldi	r25, 0x00	; 0
 7dc:	fc 01       	movw	r30, r24
 7de:	31 97       	sbiw	r30, 0x01	; 1
 7e0:	eb 30       	cpi	r30, 0x0B	; 11
 7e2:	f1 05       	cpc	r31, r1
 7e4:	28 f5       	brcc	.+74     	; 0x830 <ButtonPress3+0x1ca>
 7e6:	ee 57       	subi	r30, 0x7E	; 126
 7e8:	ff 4f       	sbci	r31, 0xFF	; 255
 7ea:	20 c1       	rjmp	.+576    	; 0xa2c <__tablejump2__>
 7ec:	80 e1       	ldi	r24, 0x10	; 16
 7ee:	82 b9       	out	0x02, r24	; 2
 7f0:	08 95       	ret
 7f2:	82 e0       	ldi	r24, 0x02	; 2
 7f4:	82 b9       	out	0x02, r24	; 2
 7f6:	08 95       	ret
 7f8:	84 e0       	ldi	r24, 0x04	; 4
 7fa:	82 b9       	out	0x02, r24	; 2
 7fc:	08 95       	ret
 7fe:	81 e0       	ldi	r24, 0x01	; 1
 800:	82 b9       	out	0x02, r24	; 2
 802:	08 95       	ret
 804:	88 e0       	ldi	r24, 0x08	; 8
 806:	82 b9       	out	0x02, r24	; 2
 808:	08 95       	ret
 80a:	82 e0       	ldi	r24, 0x02	; 2
 80c:	82 b9       	out	0x02, r24	; 2
 80e:	08 95       	ret
 810:	84 e0       	ldi	r24, 0x04	; 4
 812:	82 b9       	out	0x02, r24	; 2
 814:	08 95       	ret
 816:	81 e0       	ldi	r24, 0x01	; 1
 818:	82 b9       	out	0x02, r24	; 2
 81a:	08 95       	ret
 81c:	82 e0       	ldi	r24, 0x02	; 2
 81e:	82 b9       	out	0x02, r24	; 2
 820:	08 95       	ret
 822:	88 e0       	ldi	r24, 0x08	; 8
 824:	82 b9       	out	0x02, r24	; 2
 826:	08 95       	ret
 828:	12 b8       	out	0x02, r1	; 2
 82a:	86 e0       	ldi	r24, 0x06	; 6
 82c:	80 93 04 01 	sts	0x0104, r24
 830:	08 95       	ret

00000832 <main>:
		}
	}
}

int main(void)
{
 832:	cf 92       	push	r12
 834:	df 92       	push	r13
 836:	ef 92       	push	r14
 838:	ff 92       	push	r15
	DDRA = 0xff;	PORTA = 0x00;
 83a:	8f ef       	ldi	r24, 0xFF	; 255
 83c:	81 b9       	out	0x01, r24	; 1
 83e:	12 b8       	out	0x02, r1	; 2
	DDRB = 0x00;	PORTB = 0xFF;
 840:	14 b8       	out	0x04, r1	; 4
 842:	85 b9       	out	0x05, r24	; 5
	
	if(global_g == 0)
 844:	80 91 04 01 	lds	r24, 0x0104
 848:	81 11       	cpse	r24, r1
 84a:	e9 c0       	rjmp	.+466    	; 0xa1e <main+0x1ec>
		_avr_timer_cntcurr = _avr_timer_M;
	}
}
void TimerSet(unsigned long M) 
{
	_avr_timer_M = M;
 84c:	0f 2e       	mov	r0, r31
 84e:	fc eb       	ldi	r31, 0xBC	; 188
 850:	cf 2e       	mov	r12, r31
 852:	f2 e0       	ldi	r31, 0x02	; 2
 854:	df 2e       	mov	r13, r31
 856:	e1 2c       	mov	r14, r1
 858:	f1 2c       	mov	r15, r1
 85a:	f0 2d       	mov	r31, r0
 85c:	c0 92 00 01 	sts	0x0100, r12
 860:	d0 92 01 01 	sts	0x0101, r13
 864:	e0 92 02 01 	sts	0x0102, r14
 868:	f0 92 03 01 	sts	0x0103, r15
	_avr_timer_cntcurr = _avr_timer_M;
 86c:	c0 92 05 01 	sts	0x0105, r12
 870:	d0 92 06 01 	sts	0x0106, r13
 874:	e0 92 07 01 	sts	0x0107, r14
 878:	f0 92 08 01 	sts	0x0108, r15
	if(global_g == 0)
	{
		while(global_g == 0)
		{
			TimerSet(700);
			TimerOn();
 87c:	6c dc       	rcall	.-1832   	; 0x156 <TimerOn>
			TickFct_State_machine_1();
 87e:	cb dc       	rcall	.-1642   	; 0x216 <TickFct_State_machine_1>
			while(!TimerFlag);
 880:	80 91 09 01 	lds	r24, 0x0109
 884:	88 23       	and	r24, r24
 886:	e1 f3       	breq	.-8      	; 0x880 <main+0x4e>
			TimerFlag = 0;	
 888:	10 92 09 01 	sts	0x0109, r1
	DDRA = 0xff;	PORTA = 0x00;
	DDRB = 0x00;	PORTB = 0xFF;
	
	if(global_g == 0)
	{
		while(global_g == 0)
 88c:	80 91 04 01 	lds	r24, 0x0104
 890:	88 23       	and	r24, r24
 892:	21 f3       	breq	.-56     	; 0x85c <main+0x2a>
			TimerOn();
			TickFct_State_machine_1();
			while(!TimerFlag);
			TimerFlag = 0;	
		}
		while(global_g == 1)
 894:	81 30       	cpi	r24, 0x01	; 1
 896:	19 f5       	brne	.+70     	; 0x8de <main+0xac>
		_avr_timer_cntcurr = _avr_timer_M;
	}
}
void TimerSet(unsigned long M) 
{
	_avr_timer_M = M;
 898:	0f 2e       	mov	r0, r31
 89a:	f8 ec       	ldi	r31, 0xC8	; 200
 89c:	cf 2e       	mov	r12, r31
 89e:	d1 2c       	mov	r13, r1
 8a0:	e1 2c       	mov	r14, r1
 8a2:	f1 2c       	mov	r15, r1
 8a4:	f0 2d       	mov	r31, r0
 8a6:	c0 92 00 01 	sts	0x0100, r12
 8aa:	d0 92 01 01 	sts	0x0101, r13
 8ae:	e0 92 02 01 	sts	0x0102, r14
 8b2:	f0 92 03 01 	sts	0x0103, r15
	_avr_timer_cntcurr = _avr_timer_M;
 8b6:	c0 92 05 01 	sts	0x0105, r12
 8ba:	d0 92 06 01 	sts	0x0106, r13
 8be:	e0 92 07 01 	sts	0x0107, r14
 8c2:	f0 92 08 01 	sts	0x0108, r15
			TimerFlag = 0;	
		}
		while(global_g == 1)
		{
			TimerSet(200);
			TimerOn();
 8c6:	47 dc       	rcall	.-1906   	; 0x156 <TimerOn>
			ButtonPress();
 8c8:	ed dc       	rcall	.-1574   	; 0x2a4 <ButtonPress>
			while(!TimerFlag);
 8ca:	80 91 09 01 	lds	r24, 0x0109
 8ce:	88 23       	and	r24, r24
 8d0:	e1 f3       	breq	.-8      	; 0x8ca <main+0x98>
			TimerFlag = 0;
 8d2:	10 92 09 01 	sts	0x0109, r1
			TimerOn();
			TickFct_State_machine_1();
			while(!TimerFlag);
			TimerFlag = 0;	
		}
		while(global_g == 1)
 8d6:	80 91 04 01 	lds	r24, 0x0104
 8da:	81 30       	cpi	r24, 0x01	; 1
 8dc:	21 f3       	breq	.-56     	; 0x8a6 <main+0x74>
			TimerOn();
			ButtonPress();
			while(!TimerFlag);
			TimerFlag = 0;
		}
		while(global_g == 2)
 8de:	80 91 04 01 	lds	r24, 0x0104
 8e2:	82 30       	cpi	r24, 0x02	; 2
 8e4:	21 f5       	brne	.+72     	; 0x92e <main+0xfc>
		_avr_timer_cntcurr = _avr_timer_M;
	}
}
void TimerSet(unsigned long M) 
{
	_avr_timer_M = M;
 8e6:	0f 2e       	mov	r0, r31
 8e8:	f8 ee       	ldi	r31, 0xE8	; 232
 8ea:	cf 2e       	mov	r12, r31
 8ec:	f3 e0       	ldi	r31, 0x03	; 3
 8ee:	df 2e       	mov	r13, r31
 8f0:	e1 2c       	mov	r14, r1
 8f2:	f1 2c       	mov	r15, r1
 8f4:	f0 2d       	mov	r31, r0
 8f6:	c0 92 00 01 	sts	0x0100, r12
 8fa:	d0 92 01 01 	sts	0x0101, r13
 8fe:	e0 92 02 01 	sts	0x0102, r14
 902:	f0 92 03 01 	sts	0x0103, r15
	_avr_timer_cntcurr = _avr_timer_M;
 906:	c0 92 05 01 	sts	0x0105, r12
 90a:	d0 92 06 01 	sts	0x0106, r13
 90e:	e0 92 07 01 	sts	0x0107, r14
 912:	f0 92 08 01 	sts	0x0108, r15
			TimerFlag = 0;
		}
		while(global_g == 2)
		{
			TimerSet(1000);
			TimerOn();
 916:	1f dc       	rcall	.-1986   	; 0x156 <TimerOn>
			TickFct_Machine2();
 918:	52 dd       	rcall	.-1372   	; 0x3be <TickFct_Machine2>
			while(!TimerFlag);
 91a:	80 91 09 01 	lds	r24, 0x0109
 91e:	88 23       	and	r24, r24
 920:	e1 f3       	breq	.-8      	; 0x91a <main+0xe8>
			TimerFlag = 0;
 922:	10 92 09 01 	sts	0x0109, r1
			TimerOn();
			ButtonPress();
			while(!TimerFlag);
			TimerFlag = 0;
		}
		while(global_g == 2)
 926:	80 91 04 01 	lds	r24, 0x0104
 92a:	82 30       	cpi	r24, 0x02	; 2
 92c:	21 f3       	breq	.-56     	; 0x8f6 <main+0xc4>
			TimerOn();
			TickFct_Machine2();
			while(!TimerFlag);
			TimerFlag = 0;
		}
		while(global_g == 3)
 92e:	80 91 04 01 	lds	r24, 0x0104
 932:	83 30       	cpi	r24, 0x03	; 3
 934:	21 f5       	brne	.+72     	; 0x97e <main+0x14c>
		_avr_timer_cntcurr = _avr_timer_M;
	}
}
void TimerSet(unsigned long M) 
{
	_avr_timer_M = M;
 936:	0f 2e       	mov	r0, r31
 938:	f0 e9       	ldi	r31, 0x90	; 144
 93a:	cf 2e       	mov	r12, r31
 93c:	dd 24       	eor	r13, r13
 93e:	d3 94       	inc	r13
 940:	e1 2c       	mov	r14, r1
 942:	f1 2c       	mov	r15, r1
 944:	f0 2d       	mov	r31, r0
 946:	c0 92 00 01 	sts	0x0100, r12
 94a:	d0 92 01 01 	sts	0x0101, r13
 94e:	e0 92 02 01 	sts	0x0102, r14
 952:	f0 92 03 01 	sts	0x0103, r15
	_avr_timer_cntcurr = _avr_timer_M;
 956:	c0 92 05 01 	sts	0x0105, r12
 95a:	d0 92 06 01 	sts	0x0106, r13
 95e:	e0 92 07 01 	sts	0x0107, r14
 962:	f0 92 08 01 	sts	0x0108, r15
			TimerFlag = 0;
		}
		while(global_g == 3)
		{
			TimerSet(400);
			TimerOn();
 966:	f7 db       	rcall	.-2066   	; 0x156 <TimerOn>
			ButtonPress2();
 968:	7c dd       	rcall	.-1288   	; 0x462 <ButtonPress2>
			while(!TimerFlag);
 96a:	80 91 09 01 	lds	r24, 0x0109
 96e:	88 23       	and	r24, r24
 970:	e1 f3       	breq	.-8      	; 0x96a <main+0x138>
			TimerFlag = 0;
 972:	10 92 09 01 	sts	0x0109, r1
			TimerOn();
			TickFct_Machine2();
			while(!TimerFlag);
			TimerFlag = 0;
		}
		while(global_g == 3)
 976:	80 91 04 01 	lds	r24, 0x0104
 97a:	83 30       	cpi	r24, 0x03	; 3
 97c:	21 f3       	breq	.-56     	; 0x946 <main+0x114>
			TimerOn();
			ButtonPress2();
			while(!TimerFlag);
			TimerFlag = 0;
		}
		while(global_g == 4)
 97e:	80 91 04 01 	lds	r24, 0x0104
 982:	84 30       	cpi	r24, 0x04	; 4
 984:	21 f5       	brne	.+72     	; 0x9ce <main+0x19c>
		_avr_timer_cntcurr = _avr_timer_M;
	}
}
void TimerSet(unsigned long M) 
{
	_avr_timer_M = M;
 986:	0f 2e       	mov	r0, r31
 988:	f8 ee       	ldi	r31, 0xE8	; 232
 98a:	cf 2e       	mov	r12, r31
 98c:	f3 e0       	ldi	r31, 0x03	; 3
 98e:	df 2e       	mov	r13, r31
 990:	e1 2c       	mov	r14, r1
 992:	f1 2c       	mov	r15, r1
 994:	f0 2d       	mov	r31, r0
 996:	c0 92 00 01 	sts	0x0100, r12
 99a:	d0 92 01 01 	sts	0x0101, r13
 99e:	e0 92 02 01 	sts	0x0102, r14
 9a2:	f0 92 03 01 	sts	0x0103, r15
	_avr_timer_cntcurr = _avr_timer_M;
 9a6:	c0 92 05 01 	sts	0x0105, r12
 9aa:	d0 92 06 01 	sts	0x0106, r13
 9ae:	e0 92 07 01 	sts	0x0107, r14
 9b2:	f0 92 08 01 	sts	0x0108, r15
			TimerFlag = 0;
		}
		while(global_g == 4)
		{
			TimerSet(1000);
			TimerOn();
 9b6:	cf db       	rcall	.-2146   	; 0x156 <TimerOn>
			TickFct_Machine3();
 9b8:	f3 dd       	rcall	.-1050   	; 0x5a0 <TickFct_Machine3>
			while(!TimerFlag);
 9ba:	80 91 09 01 	lds	r24, 0x0109
 9be:	88 23       	and	r24, r24
 9c0:	e1 f3       	breq	.-8      	; 0x9ba <main+0x188>
			TimerFlag = 0;
 9c2:	10 92 09 01 	sts	0x0109, r1
			TimerOn();
			ButtonPress2();
			while(!TimerFlag);
			TimerFlag = 0;
		}
		while(global_g == 4)
 9c6:	80 91 04 01 	lds	r24, 0x0104
 9ca:	84 30       	cpi	r24, 0x04	; 4
 9cc:	21 f3       	breq	.-56     	; 0x996 <main+0x164>
			TimerOn();
			TickFct_Machine3();
			while(!TimerFlag);
			TimerFlag = 0;
		}
		while(global_g == 5)
 9ce:	80 91 04 01 	lds	r24, 0x0104
 9d2:	85 30       	cpi	r24, 0x05	; 5
 9d4:	21 f5       	brne	.+72     	; 0xa1e <main+0x1ec>
		_avr_timer_cntcurr = _avr_timer_M;
	}
}
void TimerSet(unsigned long M) 
{
	_avr_timer_M = M;
 9d6:	0f 2e       	mov	r0, r31
 9d8:	f0 e9       	ldi	r31, 0x90	; 144
 9da:	cf 2e       	mov	r12, r31
 9dc:	dd 24       	eor	r13, r13
 9de:	d3 94       	inc	r13
 9e0:	e1 2c       	mov	r14, r1
 9e2:	f1 2c       	mov	r15, r1
 9e4:	f0 2d       	mov	r31, r0
 9e6:	c0 92 00 01 	sts	0x0100, r12
 9ea:	d0 92 01 01 	sts	0x0101, r13
 9ee:	e0 92 02 01 	sts	0x0102, r14
 9f2:	f0 92 03 01 	sts	0x0103, r15
	_avr_timer_cntcurr = _avr_timer_M;
 9f6:	c0 92 05 01 	sts	0x0105, r12
 9fa:	d0 92 06 01 	sts	0x0106, r13
 9fe:	e0 92 07 01 	sts	0x0107, r14
 a02:	f0 92 08 01 	sts	0x0108, r15
			TimerFlag = 0;
		}
		while(global_g == 5)
		{
			TimerSet(400);
			TimerOn();
 a06:	a7 db       	rcall	.-2226   	; 0x156 <TimerOn>
			ButtonPress3();
 a08:	2e de       	rcall	.-932    	; 0x666 <ButtonPress3>
			while(!TimerFlag);
 a0a:	80 91 09 01 	lds	r24, 0x0109
 a0e:	88 23       	and	r24, r24
 a10:	e1 f3       	breq	.-8      	; 0xa0a <main+0x1d8>
			TimerFlag = 0;
 a12:	10 92 09 01 	sts	0x0109, r1
			TimerOn();
			TickFct_Machine3();
			while(!TimerFlag);
			TimerFlag = 0;
		}
		while(global_g == 5)
 a16:	80 91 04 01 	lds	r24, 0x0104
 a1a:	85 30       	cpi	r24, 0x05	; 5
 a1c:	21 f3       	breq	.-56     	; 0x9e6 <main+0x1b4>
			TimerFlag = 0;
		}
	}
	return 0;
		
 a1e:	80 e0       	ldi	r24, 0x00	; 0
 a20:	90 e0       	ldi	r25, 0x00	; 0
 a22:	ff 90       	pop	r15
 a24:	ef 90       	pop	r14
 a26:	df 90       	pop	r13
 a28:	cf 90       	pop	r12
 a2a:	08 95       	ret

00000a2c <__tablejump2__>:
 a2c:	ee 0f       	add	r30, r30
 a2e:	ff 1f       	adc	r31, r31

00000a30 <__tablejump__>:
 a30:	05 90       	lpm	r0, Z+
 a32:	f4 91       	lpm	r31, Z
 a34:	e0 2d       	mov	r30, r0
 a36:	09 94       	ijmp

00000a38 <_exit>:
 a38:	f8 94       	cli

00000a3a <__stop_program>:
 a3a:	ff cf       	rjmp	.-2      	; 0xa3a <__stop_program>
